; ModuleID = 'pairpmgd.bc'
source_filename = "src/transaction.cc"
target datalayout = "e-m:e-i64:64-f80:128-n8:16:32:64-S128"
target triple = "x86_64-unknown-linux-gnu"

%"class.std::uniform_int_distribution" = type { %"struct.std::uniform_int_distribution<unsigned long>::param_type" }
%"struct.std::uniform_int_distribution<unsigned long>::param_type" = type { i64, i64 }
%"class.std::linear_congruential_engine" = type { i64 }
%"class.PMGD::TransactionImpl" = type { %"class.PMGD::GraphImpl"*, i32, i8, %"struct.PMGD::TransactionHandle", %"struct.PMGD::TransactionImpl::JournalEntry"*, %"class.PMGD::TransactionImpl"*, %"class.PMGD::CallbackList.138", %"class.PMGD::CallbackList.138", %"class.PMGD::CallbackList.138", i32, i8, i8, %"class.PMGD::RangeSet", %"struct.std::array", %"class.PMGD::TransactionImpl::IteratorCallbacks" }
%"class.PMGD::GraphImpl" = type { %"class.PMGD::os::SigHandler", %"struct.PMGD::GraphImpl::GraphInit", %"class.PMGD::GraphImpl::MapRegion", %"class.PMGD::GraphImpl::MapRegion", %"class.PMGD::GraphImpl::MapRegion", %"class.PMGD::GraphImpl::MapRegion", %"class.PMGD::GraphImpl::MapRegion", %"class.PMGD::GraphImpl::MapRegion", %"class.PMGD::GraphImpl::MapRegion", %"class.PMGD::TransactionManager", %"class.PMGD::IndexManager", %"class.PMGD::StringTable", %"class.PMGD::FixedAllocator", %"class.PMGD::FixedAllocator", %"class.PMGD::Allocator", %"class.std::locale", %"class.PMGD::StripedLock", %"class.PMGD::StripedLock", %"class.PMGD::StripedLock" }
%"class.PMGD::os::SigHandler" = type { i8 }
%"struct.PMGD::GraphImpl::GraphInit" = type { i32, i32, i32, %"struct.PMGD::CommonParams", i64, i64, i64, i32, i32, i32, %"class.PMGD::os::MapRegion", %"struct.PMGD::GraphImpl::GraphInfo"* }
%"struct.PMGD::CommonParams" = type { i8, i8, i8, i8, %"class.PMGD::RangeSet"* }
%"class.PMGD::os::MapRegion" = type { %"class.PMGD::os::MapRegion::OSMapRegion"* }
%"class.PMGD::os::MapRegion::OSMapRegion" = type opaque
%"struct.PMGD::GraphImpl::GraphInfo" = type opaque
%"class.PMGD::GraphImpl::MapRegion" = type { %"class.PMGD::os::MapRegion" }
%"class.PMGD::TransactionManager" = type <{ %"struct.PMGD::TransactionHdr"*, i8*, i64, i32, [4 x i8], i64, i32, [4 x i8] }>
%"struct.PMGD::TransactionHdr" = type { i64, i8*, i8*, [40 x i8] }
%"class.PMGD::IndexManager" = type { %"class.PMGD::ChunkList"* }
%"class.PMGD::ChunkList" = type { %"struct.PMGD::ChunkList<PMGD::StringID, PMGD::ChunkList<PMGD::StringID, PMGD::Index *, 128>, 128>::ChunkListType"*, i64 }
%"struct.PMGD::ChunkList<PMGD::StringID, PMGD::ChunkList<PMGD::StringID, PMGD::Index *, 128>, 128>::ChunkListType" = type { %"struct.PMGD::ChunkList<PMGD::StringID, PMGD::ChunkList<PMGD::StringID, PMGD::Index *, 128>, 128>::ChunkListType"*, i16, i8, [0 x %"class.PMGD::KeyValuePair"] }
%"class.PMGD::KeyValuePair" = type { %"class.PMGD::StringID", %"class.PMGD::ChunkList.232" }
%"class.PMGD::StringID" = type { i16 }
%"class.PMGD::ChunkList.232" = type { %"struct.PMGD::ChunkList<PMGD::StringID, PMGD::Index *, 128>::ChunkListType"*, i64 }
%"struct.PMGD::ChunkList<PMGD::StringID, PMGD::Index *, 128>::ChunkListType" = type { %"struct.PMGD::ChunkList<PMGD::StringID, PMGD::Index *, 128>::ChunkListType"*, i16, i8, [0 x %"class.PMGD::KeyValuePair.233"] }
%"class.PMGD::KeyValuePair.233" = type { %"class.PMGD::StringID", %"class.PMGD::Index"* }
%"class.PMGD::Index" = type { i32 }
%"class.PMGD::StringTable" = type { i32, i32, i32, i8* }
%"class.PMGD::FixedAllocator" = type { %"struct.PMGD::FixedAllocator::RegionHeader"*, i64, i32, %"class.std::__cxx11::list.157" }
%"struct.PMGD::FixedAllocator::RegionHeader" = type { i64*, i64*, i64, i64, i32 }
%"class.std::__cxx11::list.157" = type { %"class.std::__cxx11::_List_base.158" }
%"class.std::__cxx11::_List_base.158" = type { %"struct.std::__cxx11::_List_base<void *, std::allocator<void *> >::_List_impl" }
%"struct.std::__cxx11::_List_base<void *, std::allocator<void *> >::_List_impl" = type { %"struct.std::_List_node" }
%"struct.std::_List_node" = type { %"struct.std::__detail::_List_node_base", %"struct.__gnu_cxx::__aligned_membuf" }
%"struct.std::__detail::_List_node_base" = type { %"struct.std::__detail::_List_node_base"*, %"struct.std::__detail::_List_node_base"* }
%"struct.__gnu_cxx::__aligned_membuf" = type { [8 x i8] }
%"class.PMGD::Allocator" = type { i64, i64, %"struct.PMGD::Allocator::RegionHeader"*, %"class.PMGD::FixedAllocator", %"class.std::vector.216", %"struct.PMGD::Allocator::AllocatorLock", %"class.std::vector.221" }
%"struct.PMGD::Allocator::RegionHeader" = type { %"struct.PMGD::FixedAllocator::RegionHeader", i32, %"struct.PMGD::AllocatorUnit::RegionHeader", [0 x %"struct.PMGD::AllocatorUnit::RegionHeader"*] }
%"struct.PMGD::AllocatorUnit::RegionHeader" = type { i32, i64, %"struct.PMGD::AllocatorUnit::VariableAllocator::RegionHeader", %"struct.PMGD::AllocatorUnit::FlexFixedAllocator::RegionHeader", [6 x %"struct.PMGD::AllocatorUnit::FixSizeAllocator::RegionHeader"] }
%"struct.PMGD::AllocatorUnit::VariableAllocator::RegionHeader" = type { %"struct.PMGD::AllocatorUnit::VariableAllocator::FreeFormChunk"* }
%"struct.PMGD::AllocatorUnit::VariableAllocator::FreeFormChunk" = type { %"struct.PMGD::AllocatorUnit::VariableAllocator::FreeFormChunk"*, i32, i32, i32, i32 }
%"struct.PMGD::AllocatorUnit::FlexFixedAllocator::RegionHeader" = type { i64, %"struct.PMGD::AllocatorUnit::FlexFixedAllocator::RegionHeader"*, %"struct.PMGD::FixedAllocator::RegionHeader" }
%"struct.PMGD::AllocatorUnit::FixSizeAllocator::RegionHeader" = type { %"struct.PMGD::AllocatorUnit::FixSizeAllocator::FixedChunk"* }
%"struct.PMGD::AllocatorUnit::FixSizeAllocator::FixedChunk" = type <{ %"struct.PMGD::AllocatorUnit::FixSizeAllocator::FixedChunk"*, i32, i32, i32, [0 x i32], [4 x i8] }>
%"class.std::vector.216" = type { %"struct.std::_Vector_base.217" }
%"struct.std::_Vector_base.217" = type { %"struct.std::_Vector_base<PMGD::AllocatorUnit *, std::allocator<PMGD::AllocatorUnit *> >::_Vector_impl" }
%"struct.std::_Vector_base<PMGD::AllocatorUnit *, std::allocator<PMGD::AllocatorUnit *> >::_Vector_impl" = type { %"class.PMGD::AllocatorUnit"**, %"class.PMGD::AllocatorUnit"**, %"class.PMGD::AllocatorUnit"** }
%"class.PMGD::AllocatorUnit" = type { %"class.PMGD::Allocator"*, %"class.PMGD::AllocatorUnit::VariableAllocator", %"class.PMGD::AllocatorUnit::FlexFixedAllocator", [6 x %"class.PMGD::AllocatorUnit::FixSizeAllocator"*], %"class.PMGD::AllocatorUnit::ChunkAllocator" }
%"class.PMGD::AllocatorUnit::VariableAllocator" = type { %"struct.PMGD::AllocatorUnit::VariableAllocator::RegionHeader"*, %"class.PMGD::AllocatorUnit"*, i32, %"class.std::unordered_set", %"struct.PMGD::AllocatorUnit::VariableAllocator::FreeFormChunk"*, %"struct.PMGD::AllocatorUnit::VariableAllocator::FreeFormChunk"* }
%"class.std::unordered_set" = type { %"class.std::_Hashtable.176" }
%"class.std::_Hashtable.176" = type { %"struct.std::__detail::_Hash_node_base"**, i64, %"struct.std::__detail::_Hash_node_base", i64, %"struct.std::__detail::_Prime_rehash_policy", %"struct.std::__detail::_Hash_node_base"* }
%"struct.std::__detail::_Hash_node_base" = type { %"struct.std::__detail::_Hash_node_base"* }
%"struct.std::__detail::_Prime_rehash_policy" = type { float, i64 }
%"class.PMGD::AllocatorUnit::FlexFixedAllocator" = type { %"struct.PMGD::AllocatorUnit::FlexFixedAllocator::RegionHeader"*, i32, i64, i32, i8, %"class.PMGD::AllocatorUnit"*, %"class.std::unordered_map.162", %"struct.PMGD::AllocatorUnit::FlexFixedAllocator::RegionHeader"* }
%"class.std::unordered_map.162" = type { %"class.std::_Hashtable.163" }
%"class.std::_Hashtable.163" = type { %"struct.std::__detail::_Hash_node_base"**, i64, %"struct.std::__detail::_Hash_node_base", i64, %"struct.std::__detail::_Prime_rehash_policy", %"struct.std::__detail::_Hash_node_base"* }
%"class.PMGD::AllocatorUnit::FixSizeAllocator" = type { %"struct.PMGD::AllocatorUnit::FixSizeAllocator::RegionHeader"*, i32, i32, i32, %"class.PMGD::AllocatorUnit::FlexFixedAllocator"*, i32, %"class.std::unordered_set.196", %"struct.PMGD::AllocatorUnit::FixSizeAllocator::FixedChunk"*, %"struct.PMGD::AllocatorUnit::FixSizeAllocator::FixedChunk"* }
%"class.std::unordered_set.196" = type { %"class.std::_Hashtable.197" }
%"class.std::_Hashtable.197" = type { %"struct.std::__detail::_Hash_node_base"**, i64, %"struct.std::__detail::_Hash_node_base", i64, %"struct.std::__detail::_Prime_rehash_policy", %"struct.std::__detail::_Hash_node_base"* }
%"class.PMGD::AllocatorUnit::ChunkAllocator" = type { %"class.PMGD::AllocatorUnit"* }
%"struct.PMGD::Allocator::AllocatorLock" = type { %"class.PMGD::TransactionImpl"* }
%"class.std::vector.221" = type { %"struct.std::_Vector_base.222" }
%"struct.std::_Vector_base.222" = type { %"struct.std::_Vector_base<PMGD::Allocator::AllocatorLock, std::allocator<PMGD::Allocator::AllocatorLock> >::_Vector_impl" }
%"struct.std::_Vector_base<PMGD::Allocator::AllocatorLock, std::allocator<PMGD::Allocator::AllocatorLock> >::_Vector_impl" = type { %"struct.PMGD::Allocator::AllocatorLock"*, %"struct.PMGD::Allocator::AllocatorLock"*, %"struct.PMGD::Allocator::AllocatorLock"* }
%"class.std::locale" = type { %"class.std::locale::_Impl"* }
%"class.std::locale::_Impl" = type { i32, %"class.std::locale::facet"**, i64, %"class.std::locale::facet"**, i8** }
%"class.std::locale::facet" = type <{ i32 (...)**, i32, [4 x i8] }>
%"class.PMGD::StripedLock" = type { %"class.std::vector.109", i64, i64 }
%"class.std::vector.109" = type { %"struct.std::_Vector_base.110" }
%"struct.std::_Vector_base.110" = type { %"struct.std::_Vector_base<PMGD::RWLock, std::allocator<PMGD::RWLock> >::_Vector_impl" }
%"struct.std::_Vector_base<PMGD::RWLock, std::allocator<PMGD::RWLock> >::_Vector_impl" = type { %"class.PMGD::RWLock"*, %"class.PMGD::RWLock"*, %"class.PMGD::RWLock"* }
%"class.PMGD::RWLock" = type { i16 }
%"struct.PMGD::TransactionHandle" = type { i64, i32, i8*, i8* }
%"struct.PMGD::TransactionImpl::JournalEntry" = type { i64, i8*, [48 x i8] }
%"class.PMGD::CallbackList.138" = type { %"class.std::__cxx11::list.139" }
%"class.std::__cxx11::list.139" = type { %"class.std::__cxx11::_List_base.140" }
%"class.std::__cxx11::_List_base.140" = type { %"struct.std::__cxx11::_List_base<PMGD::CallbackList<void *, PMGD::TransactionImpl *>::Callback, std::allocator<PMGD::CallbackList<void *, PMGD::TransactionImpl *>::Callback> >::_List_impl" }
%"struct.std::__cxx11::_List_base<PMGD::CallbackList<void *, PMGD::TransactionImpl *>::Callback, std::allocator<PMGD::CallbackList<void *, PMGD::TransactionImpl *>::Callback> >::_List_impl" = type { %"struct.std::_List_node" }
%"class.PMGD::RangeSet" = type { %"class.std::set" }
%"class.std::set" = type { %"class.std::_Rb_tree" }
%"class.std::_Rb_tree" = type { %"struct.std::_Rb_tree<PMGD::RangeSet::Range, PMGD::RangeSet::Range, std::_Identity<PMGD::RangeSet::Range>, PMGD::RangeSet::RangeComp, std::allocator<PMGD::RangeSet::Range> >::_Rb_tree_impl" }
%"struct.std::_Rb_tree<PMGD::RangeSet::Range, PMGD::RangeSet::Range, std::_Identity<PMGD::RangeSet::Range>, PMGD::RangeSet::RangeComp, std::allocator<PMGD::RangeSet::Range> >::_Rb_tree_impl" = type { %"struct.PMGD::RangeSet::RangeComp", %"struct.std::_Rb_tree_node_base", i64 }
%"struct.PMGD::RangeSet::RangeComp" = type { i8 }
%"struct.std::_Rb_tree_node_base" = type { i32, %"struct.std::_Rb_tree_node_base"*, %"struct.std::_Rb_tree_node_base"*, %"struct.std::_Rb_tree_node_base"* }
%"struct.std::array" = type { [3 x %"struct.PMGD::TransactionImpl::Locks"] }
%"struct.PMGD::TransactionImpl::Locks" = type { %"class.std::unordered_map", %"class.PMGD::StripedLock"* }
%"class.std::unordered_map" = type { %"class.std::_Hashtable" }
%"class.std::_Hashtable" = type { %"struct.std::__detail::_Hash_node_base"**, i64, %"struct.std::__detail::_Hash_node_base", i64, %"struct.std::__detail::_Prime_rehash_policy", %"struct.std::__detail::_Hash_node_base"* }
%"class.PMGD::TransactionImpl::IteratorCallbacks" = type { %"class.PMGD::CallbackList.114", %"class.PMGD::CallbackList.114", %"class.PMGD::CallbackList.120" }
%"class.PMGD::CallbackList.114" = type { %"class.std::__cxx11::list.115" }
%"class.std::__cxx11::list.115" = type { %"class.std::__cxx11::_List_base.116" }
%"class.std::__cxx11::_List_base.116" = type { %"struct.std::__cxx11::_List_base<PMGD::CallbackList<void *, void *>::Callback, std::allocator<PMGD::CallbackList<void *, void *>::Callback> >::_List_impl" }
%"struct.std::__cxx11::_List_base<PMGD::CallbackList<void *, void *>::Callback, std::allocator<PMGD::CallbackList<void *, void *>::Callback> >::_List_impl" = type { %"struct.std::_List_node" }
%"class.PMGD::CallbackList.120" = type { %"class.std::__cxx11::list.121" }
%"class.std::__cxx11::list.121" = type { %"class.std::__cxx11::_List_base.122" }
%"class.std::__cxx11::_List_base.122" = type { %"struct.std::__cxx11::_List_base<PMGD::CallbackList<void *, const PMGD::PropertyRef &>::Callback, std::allocator<PMGD::CallbackList<void *, const PMGD::PropertyRef &>::Callback> >::_List_impl" }
%"struct.std::__cxx11::_List_base<PMGD::CallbackList<void *, const PMGD::PropertyRef &>::Callback, std::allocator<PMGD::CallbackList<void *, const PMGD::PropertyRef &>::Callback> >::_List_impl" = type { %"struct.std::_List_node" }
%"class.PMGD::Transaction" = type { %"class.PMGD::TransactionImpl"* }
%"class.PMGD::Graph" = type { %"class.PMGD::GraphImpl"* }
%"struct.PMGD::Exception" = type <{ i32, [4 x i8], i8*, %"class.std::__cxx11::basic_string", i32, [4 x i8], i8*, i32, [4 x i8] }>
%"class.std::__cxx11::basic_string" = type { %"struct.std::__cxx11::basic_string<char, std::char_traits<char>, std::allocator<char> >::_Alloc_hider", i64, %union.anon.2 }
%"struct.std::__cxx11::basic_string<char, std::char_traits<char>, std::allocator<char> >::_Alloc_hider" = type { i8* }
%union.anon.2 = type { i64, [8 x i8] }
%"class.std::random_device" = type { %union.anon.105 }
%union.anon.105 = type { %"class.std::mersenne_twister_engine" }
%"class.std::mersenne_twister_engine" = type { [624 x i64], i64 }
%"class.std::allocator" = type { i8 }
%"struct.std::pair.239" = type <{ i64, i8, [7 x i8] }>
%"struct.std::__detail::_Hash_node" = type { %"struct.std::__detail::_Hash_node_value_base" }
%"struct.std::__detail::_Hash_node_value_base" = type { %"struct.std::__detail::_Hash_node_base", %"struct.__gnu_cxx::__aligned_buffer" }
%"struct.__gnu_cxx::__aligned_buffer" = type { %"union.std::aligned_storage<16, 8>::type" }
%"union.std::aligned_storage<16, 8>::type" = type { [16 x i8] }
%"class.std::allocator.253" = type { i8 }
%"struct.std::__detail::_Node_iterator" = type { %"struct.std::__detail::_Node_iterator_base" }
%"struct.std::__detail::_Node_iterator_base" = type { %"struct.std::__detail::_Hash_node"* }
%"struct.std::_Rb_tree_node" = type { %"struct.std::_Rb_tree_node_base", %"struct.__gnu_cxx::__aligned_membuf.263" }
%"struct.__gnu_cxx::__aligned_membuf.263" = type { [16 x i8] }
%"union.std::_Any_data" = type { %"union.std::_Nocopy_types" }
%"union.std::_Nocopy_types" = type { { i64, i64 } }
%"class.std::allocator.256" = type { i8 }
%"struct.PMGD::CallbackList<void *, PMGD::TransactionImpl *>::Callback" = type { i8*, %"class.std::function.144" }
%"class.std::function.144" = type { %"class.std::_Function_base", void (%"union.std::_Any_data"*, %"class.PMGD::TransactionImpl"**)* }
%"class.std::_Function_base" = type { %"union.std::_Any_data", i1 (%"union.std::_Any_data"*, %"union.std::_Any_data"*, i32)* }
%"struct.std::_List_const_iterator.316" = type { %"struct.std::__detail::_List_node_base"* }
%"struct.std::_List_node.264" = type { %"struct.std::__detail::_List_node_base", %"struct.__gnu_cxx::__aligned_membuf.265" }
%"struct.__gnu_cxx::__aligned_membuf.265" = type { [40 x i8] }

$__clang_call_terminate = comdat any

$_ZN4PMGD9ExceptionD2Ev = comdat any

$_ZN4PMGD6RWLock7backoffERm = comdat any

$_ZNSt24uniform_int_distributionImEclISt26linear_congruential_engineImLm48271ELm0ELm2147483647EEEEmRT_RKNS0_10param_typeE = comdat any

$_ZN4PMGD6RWLock9read_lockEv = comdat any

$_ZN4PMGD6RWLock10write_lockEv = comdat any

$_ZN4PMGD6RWLock18upgrade_write_lockEv = comdat any

$_ZN4PMGD15TransactionImpl17IteratorCallbacksD2Ev = comdat any

$_ZNSt5arrayIN4PMGD15TransactionImpl5LocksELm3EED2Ev = comdat any

$_ZN4PMGD8RangeSetD2Ev = comdat any

$_ZN4PMGD12CallbackListIPvPNS_15TransactionImplEED2Ev = comdat any

$_ZNK4PMGD12CallbackListIPvPNS_15TransactionImplEE12do_callbacksES3_ = comdat any

$_ZNSt8_Rb_treeIN4PMGD8RangeSet5RangeES2_St9_IdentityIS2_ENS1_9RangeCompESaIS2_EE8_M_eraseEPSt13_Rb_tree_nodeIS2_E = comdat any

$_ZNSt10_HashtableImSt4pairIKmhESaIS2_ENSt8__detail10_Select1stESt8equal_toImESt4hashImENS4_18_Mod_range_hashingENS4_20_Default_ranged_hashENS4_20_Prime_rehash_policyENS4_17_Hashtable_traitsILb0ELb0ELb1EEEE21_M_insert_unique_nodeEmmPNS4_10_Hash_nodeIS2_Lb0EEE = comdat any

$_ZTSN4PMGD9ExceptionE = comdat any

$_ZTIN4PMGD9ExceptionE = comdat any

$_ZZN4PMGD6RWLock7backoffERmE4dist = comdat any

$_ZGVZN4PMGD6RWLock7backoffERmE4dist = comdat any

$_ZZN4PMGD6RWLock7backoffERmE3gen = comdat any

$_ZGVZN4PMGD6RWLock7backoffERmE3gen = comdat any

@_ZTVN10__cxxabiv117__class_type_infoE = external global i8*
@_ZTSN4PMGD9ExceptionE = linkonce_odr constant [18 x i8] c"N4PMGD9ExceptionE\00", comdat, align 1
@_ZTIN4PMGD9ExceptionE = linkonce_odr constant { i8*, i8* } { i8* bitcast (i8** getelementptr inbounds (i8*, i8** @_ZTVN10__cxxabiv117__class_type_infoE, i64 2) to i8*), i8* getelementptr inbounds ([18 x i8], [18 x i8]* @_ZTSN4PMGD9ExceptionE, i32 0, i32 0) }, comdat, align 8
@.str.38 = private unnamed_addr constant [8 x i8] c"default\00", align 1
@_ZZN4PMGD6RWLock7backoffERmE4dist = linkonce_odr thread_local global %"class.std::uniform_int_distribution" zeroinitializer, comdat, align 8, !dbg !0
@_ZGVZN4PMGD6RWLock7backoffERmE4dist = linkonce_odr thread_local local_unnamed_addr global i64 0, comdat, align 8
@_ZZN4PMGD6RWLock7backoffERmE3gen = linkonce_odr thread_local global %"class.std::linear_congruential_engine" zeroinitializer, comdat, align 8, !dbg !16932
@_ZGVZN4PMGD6RWLock7backoffERmE3gen = linkonce_odr thread_local local_unnamed_addr global i64 0, comdat, align 8
@.str.39 = private unnamed_addr constant [43 x i8] c"(r & LOCK_READER_MASK) != LOCK_READER_MASK\00", align 1
@.str.40 = private unnamed_addr constant [11 x i8] c"src/lock.h\00", align 1
@__PRETTY_FUNCTION__._ZN4PMGD6RWLock9read_lockEv = private unnamed_addr constant [31 x i8] c"void PMGD::RWLock::read_lock()\00", align 1
@.str.41 = private unnamed_addr constant [12 x i8] c"LockTimeout\00", align 1
@.str.42 = private unnamed_addr constant [35 x i8] c"(_rw_lock & LOCK_READER_MASK) != 0\00", align 1
@__PRETTY_FUNCTION__._ZN4PMGD6RWLock11read_unlockEv = private unnamed_addr constant [33 x i8] c"void PMGD::RWLock::read_unlock()\00", align 1
@.str.43 = private unnamed_addr constant [29 x i8] c"(_rw_lock & WRITE_LOCK) != 0\00", align 1
@__PRETTY_FUNCTION__._ZN4PMGD6RWLock12write_unlockEv = private unnamed_addr constant [34 x i8] c"void PMGD::RWLock::write_unlock()\00", align 1
@.str.45 = private unnamed_addr constant [9 x i8] c"ReadOnly\00", align 1
@_ZN4PMGD15TransactionImpl14_per_thread_txE = thread_local global %"class.PMGD::TransactionImpl"* null, align 8, !dbg !16980
@.str.50 = private unnamed_addr constant [16 x i8] c"src/GraphImpl.h\00", align 1
@.str.51 = private unnamed_addr constant [15 x i8] c"NotImplemented\00", align 1
@.str.52 = private unnamed_addr constant [19 x i8] c"src/transaction.cc\00", align 1
@.str.53 = private unnamed_addr constant [8 x i8] c"len > 0\00", align 1
@__PRETTY_FUNCTION__._ZN4PMGD15TransactionImpl3logEPvm = private unnamed_addr constant [48 x i8] c"void PMGD::TransactionImpl::log(void *, size_t)\00", align 1
@.str.54 = private unnamed_addr constant [18 x i8] c"OutOfJournalSpace\00", align 1

@_ZN4PMGD11TransactionC1ERNS_5GraphEi = unnamed_addr alias void (%"class.PMGD::Transaction"*, %"class.PMGD::Graph"*, i32), void (%"class.PMGD::Transaction"*, %"class.PMGD::Graph"*, i32)* @_ZN4PMGD11TransactionC2ERNS_5GraphEi
@_ZN4PMGD11TransactionD1Ev = unnamed_addr alias void (%"class.PMGD::Transaction"*), void (%"class.PMGD::Transaction"*)* @_ZN4PMGD11TransactionD2Ev
@_ZN4PMGD15TransactionImplC1EPNS_9GraphImplEi = unnamed_addr alias void (%"class.PMGD::TransactionImpl"*, %"class.PMGD::GraphImpl"*, i32), void (%"class.PMGD::TransactionImpl"*, %"class.PMGD::GraphImpl"*, i32)* @_ZN4PMGD15TransactionImplC2EPNS_9GraphImplEi
@_ZN4PMGD15TransactionImplD1Ev = unnamed_addr alias void (%"class.PMGD::TransactionImpl"*), void (%"class.PMGD::TransactionImpl"*)* @_ZN4PMGD15TransactionImplD2Ev

; Function Attrs: argmemonly nounwind
declare void @llvm.memcpy.p0i8.p0i8.i64(i8* nocapture writeonly, i8* nocapture readonly, i64, i1) #0

; Function Attrs: argmemonly nounwind
declare void @llvm.lifetime.start.p0i8(i64, i8* nocapture) #0

declare i32 @__gxx_personality_v0(...)

; Function Attrs: argmemonly nounwind
declare void @llvm.lifetime.end.p0i8(i64, i8* nocapture) #0

; Function Attrs: noinline noreturn nounwind
define linkonce_odr hidden void @__clang_call_terminate(i8*) local_unnamed_addr #1 comdat {
  %2 = tail call i8* @__cxa_begin_catch(i8* %0) #14
  tail call void @_ZSt9terminatev() #15
  unreachable
}

declare i8* @__cxa_begin_catch(i8*) local_unnamed_addr

declare void @_ZSt9terminatev() local_unnamed_addr

; Function Attrs: argmemonly nounwind
declare void @llvm.memset.p0i8.i64(i8* nocapture writeonly, i8, i64, i1) #0

declare i8* @__cxa_allocate_exception(i64) local_unnamed_addr

declare void @__cxa_throw(i8*, i8*, i8*) local_unnamed_addr

; Function Attrs: inlinehint nounwind uwtable
define linkonce_odr void @_ZN4PMGD9ExceptionD2Ev(%"struct.PMGD::Exception"* %this) unnamed_addr #2 comdat align 2 personality i32 (...)* @__gxx_personality_v0 !dbg !18371 {
entry:
  call void @llvm.dbg.value(metadata %"struct.PMGD::Exception"* %this, metadata !18394, metadata !DIExpression()), !dbg !18396
  call void @llvm.dbg.value(metadata %"struct.PMGD::Exception"* %this, metadata !18397, metadata !DIExpression(DW_OP_plus_uconst, 16, DW_OP_stack_value)) #14, !dbg !18401
  call void @llvm.dbg.value(metadata %"struct.PMGD::Exception"* %this, metadata !18404, metadata !DIExpression(DW_OP_plus_uconst, 16, DW_OP_stack_value)) #14, !dbg !18407
  call void @llvm.dbg.value(metadata %"struct.PMGD::Exception"* %this, metadata !18410, metadata !DIExpression(DW_OP_plus_uconst, 16, DW_OP_stack_value)) #14, !dbg !18414
  call void @llvm.dbg.value(metadata %"struct.PMGD::Exception"* %this, metadata !18417, metadata !DIExpression(DW_OP_plus_uconst, 16, DW_OP_stack_value)) #14, !dbg !18420
  %_M_p.i.i.i.i = getelementptr inbounds %"struct.PMGD::Exception", %"struct.PMGD::Exception"* %this, i64 0, i32 3, i32 0, i32 0, !dbg !18422
  %0 = load i8*, i8** %_M_p.i.i.i.i, align 8, !dbg !18422
  call void @llvm.dbg.value(metadata %"struct.PMGD::Exception"* %this, metadata !18423, metadata !DIExpression(DW_OP_plus_uconst, 16, DW_OP_stack_value)) #14, !dbg !18426
  %1 = getelementptr inbounds %"struct.PMGD::Exception", %"struct.PMGD::Exception"* %this, i64 0, i32 3, i32 2, !dbg !18428
  %arraydecay.i.i.i.i = bitcast %union.anon.2* %1 to i8*, !dbg !18429
  %cmp.i.i.i = icmp eq i8* %0, %arraydecay.i.i.i.i, !dbg !18430
  br i1 %cmp.i.i.i, label %_ZNSt7__cxx1112basic_stringIcSt11char_traitsIcESaIcEED2Ev.exit, label %if.then.i.i, !dbg !18431

if.then.i.i:                                      ; preds = %entry
  call void @llvm.dbg.value(metadata %"struct.PMGD::Exception"* %this, metadata !18432, metadata !DIExpression(DW_OP_plus_uconst, 16, DW_OP_stack_value)) #14, !dbg !18436
  call void @llvm.dbg.value(metadata %"struct.PMGD::Exception"* %this, metadata !18435, metadata !DIExpression(DW_OP_plus_uconst, 16, DW_OP_plus_uconst, 16, DW_OP_deref, DW_OP_stack_value)) #14, !dbg !18438
  call void @llvm.dbg.value(metadata %"struct.PMGD::Exception"* %this, metadata !18417, metadata !DIExpression(DW_OP_plus_uconst, 16, DW_OP_stack_value)) #14, !dbg !18439
  call void @llvm.dbg.value(metadata %"struct.PMGD::Exception"* %this, metadata !18441, metadata !DIExpression(DW_OP_plus_uconst, 16, DW_OP_stack_value)) #14, !dbg !18446
  call void @llvm.dbg.value(metadata i8* %0, metadata !18444, metadata !DIExpression()) #14, !dbg !18448
  call void @llvm.dbg.value(metadata %"struct.PMGD::Exception"* %this, metadata !18445, metadata !DIExpression(DW_OP_plus_uconst, 16, DW_OP_plus_uconst, 16, DW_OP_deref, DW_OP_plus_uconst, 1, DW_OP_stack_value)) #14, !dbg !18449
  call void @llvm.dbg.value(metadata %"struct.PMGD::Exception"* %this, metadata !18450, metadata !DIExpression(DW_OP_plus_uconst, 16, DW_OP_stack_value)) #14, !dbg !18456
  call void @llvm.dbg.value(metadata i8* %0, metadata !18453, metadata !DIExpression()) #14, !dbg !18458
  call void @llvm.dbg.value(metadata %"struct.PMGD::Exception"* %this, metadata !18454, metadata !DIExpression(DW_OP_plus_uconst, 16, DW_OP_plus_uconst, 16, DW_OP_deref, DW_OP_plus_uconst, 1, DW_OP_stack_value)) #14, !dbg !18459
  tail call void @_ZdlPv(i8* %0) #14, !dbg !18460
  br label %_ZNSt7__cxx1112basic_stringIcSt11char_traitsIcESaIcEED2Ev.exit, !dbg !18461

_ZNSt7__cxx1112basic_stringIcSt11char_traitsIcESaIcEED2Ev.exit: ; preds = %entry, %if.then.i.i
  ret void, !dbg !18462
}

; Function Attrs: noreturn nounwind
declare void @__assert_fail(i8*, i8*, i32, i8*) local_unnamed_addr #3

; Function Attrs: nobuiltin
declare noalias nonnull i8* @_Znwm(i64) local_unnamed_addr #4

declare void @_ZNSt13random_device7_M_initERKNSt7__cxx1112basic_stringIcSt11char_traitsIcESaIcEEE(%"class.std::random_device"*, %"class.std::__cxx11::basic_string"* dereferenceable(32)) local_unnamed_addr #5

declare void @_ZNSt13random_device7_M_finiEv(%"class.std::random_device"*) local_unnamed_addr #5

declare i32 @_ZNSt13random_device9_M_getvalEv(%"class.std::random_device"*) local_unnamed_addr #5

; Function Attrs: uwtable
define linkonce_odr void @_ZN4PMGD6RWLock7backoffERm(%"class.PMGD::RWLock"* %this, i64* dereferenceable(8) %cur_max_delay) local_unnamed_addr #6 comdat align 2 personality i8* bitcast (i32 (...)* @__gxx_personality_v0 to i8*) !dbg !2 {
entry:
  %rd = alloca %"class.std::random_device", align 8
  %ref.tmp = alloca %"class.std::__cxx11::basic_string", align 8
  %ref.tmp15 = alloca %"struct.std::uniform_int_distribution<unsigned long>::param_type", align 8
  call void @llvm.dbg.value(metadata %"class.PMGD::RWLock"* %this, metadata !18265, metadata !DIExpression()), !dbg !18463
  call void @llvm.dbg.value(metadata i64* %cur_max_delay, metadata !18266, metadata !DIExpression()), !dbg !18464
  %0 = bitcast %"class.std::random_device"* %rd to i8*, !dbg !18465
  call void @llvm.lifetime.start.p0i8(i64 5000, i8* nonnull %0) #14, !dbg !18465
  %1 = bitcast %"class.std::__cxx11::basic_string"* %ref.tmp to i8*, !dbg !18466
  call void @llvm.lifetime.start.p0i8(i64 32, i8* nonnull %1) #14, !dbg !18466
  call void @llvm.dbg.value(metadata %"class.std::__cxx11::basic_string"* %ref.tmp, metadata !18467, metadata !DIExpression()), !dbg !18472
  call void @llvm.dbg.value(metadata i8* getelementptr inbounds ([8 x i8], [8 x i8]* @.str.38, i64 0, i64 0), metadata !18470, metadata !DIExpression()), !dbg !18474
  call void @llvm.dbg.value(metadata %"class.std::allocator"* undef, metadata !18471, metadata !DIExpression()), !dbg !18475
  call void @llvm.dbg.value(metadata %"class.std::__cxx11::basic_string"* %ref.tmp, metadata !18476, metadata !DIExpression()), !dbg !18479
  %2 = getelementptr inbounds %"class.std::__cxx11::basic_string", %"class.std::__cxx11::basic_string"* %ref.tmp, i64 0, i32 2, !dbg !18481
  call void @llvm.dbg.value(metadata %"class.std::__cxx11::basic_string"* %ref.tmp, metadata !18482, metadata !DIExpression()), !dbg !18488
  call void @llvm.dbg.value(metadata %union.anon.2* %2, metadata !18485, metadata !DIExpression()), !dbg !18490
  call void @llvm.dbg.value(metadata %"class.std::allocator"* undef, metadata !18486, metadata !DIExpression()), !dbg !18491
  %3 = bitcast %"class.std::__cxx11::basic_string"* %ref.tmp to %union.anon.2**, !dbg !18492
  store %union.anon.2* %2, %union.anon.2** %3, align 8, !dbg !18492
  %4 = bitcast %union.anon.2* %2 to i8*, !dbg !18493
  call void @llvm.dbg.value(metadata %"class.std::__cxx11::basic_string"* %ref.tmp, metadata !18495, metadata !DIExpression()), !dbg !18505
  call void @llvm.dbg.value(metadata i8* getelementptr inbounds ([8 x i8], [8 x i8]* @.str.38, i64 0, i64 0), metadata !18503, metadata !DIExpression()), !dbg !18507
  call void @llvm.dbg.value(metadata i8* inttoptr (i64 -1 to i8*), metadata !18504, metadata !DIExpression()), !dbg !18508
  call void @llvm.dbg.value(metadata %"class.std::__cxx11::basic_string"* %ref.tmp, metadata !18509, metadata !DIExpression()), !dbg !18520
  call void @llvm.dbg.value(metadata i8* getelementptr inbounds ([8 x i8], [8 x i8]* @.str.38, i64 0, i64 0), metadata !18517, metadata !DIExpression()), !dbg !18522
  call void @llvm.dbg.value(metadata i8* inttoptr (i64 -1 to i8*), metadata !18518, metadata !DIExpression()), !dbg !18523
  call void @llvm.dbg.value(metadata %"class.std::__cxx11::basic_string"* %ref.tmp, metadata !18524, metadata !DIExpression()), !dbg !18540
  call void @llvm.dbg.value(metadata i8* getelementptr inbounds ([8 x i8], [8 x i8]* @.str.38, i64 0, i64 0), metadata !18536, metadata !DIExpression()), !dbg !18542
  call void @llvm.dbg.value(metadata i8* inttoptr (i64 -1 to i8*), metadata !18537, metadata !DIExpression()), !dbg !18543
  call void @llvm.dbg.value(metadata i64 7, metadata !18539, metadata !DIExpression()), !dbg !18544
  call void @llvm.dbg.value(metadata %"class.std::__cxx11::basic_string"* %ref.tmp, metadata !18417, metadata !DIExpression()), !dbg !18545
  %_M_p.i.i.i.i.i = getelementptr inbounds %"class.std::__cxx11::basic_string", %"class.std::__cxx11::basic_string"* %ref.tmp, i64 0, i32 0, i32 0, !dbg !18548
  call void @llvm.dbg.value(metadata i8* %4, metadata !18549, metadata !DIExpression()) #14, !dbg !18554
  call void @llvm.dbg.value(metadata i8* getelementptr inbounds ([8 x i8], [8 x i8]* @.str.38, i64 0, i64 0), metadata !18552, metadata !DIExpression()) #14, !dbg !18556
  call void @llvm.dbg.value(metadata i8* inttoptr (i64 -1 to i8*), metadata !18553, metadata !DIExpression()) #14, !dbg !18557
  call void @llvm.dbg.value(metadata i8* %4, metadata !18558, metadata !DIExpression()) #14, !dbg !18563
  call void @llvm.dbg.value(metadata i8* getelementptr inbounds ([8 x i8], [8 x i8]* @.str.38, i64 0, i64 0), metadata !18561, metadata !DIExpression()) #14, !dbg !18565
  call void @llvm.dbg.value(metadata i64 7, metadata !18562, metadata !DIExpression()) #14, !dbg !18566
  call void @llvm.memcpy.p0i8.p0i8.i64(i8* nonnull align 8 %4, i8* nonnull align 1 getelementptr inbounds ([8 x i8], [8 x i8]* @.str.38, i64 0, i64 0), i64 7, i1 false) #14, !dbg !18567
  call void @llvm.dbg.value(metadata i64 7, metadata !18539, metadata !DIExpression()), !dbg !18544
  call void @llvm.dbg.value(metadata %"class.std::__cxx11::basic_string"* %ref.tmp, metadata !18575, metadata !DIExpression()), !dbg !18579
  call void @llvm.dbg.value(metadata i64 7, metadata !18578, metadata !DIExpression()), !dbg !18581
  call void @llvm.dbg.value(metadata %"class.std::__cxx11::basic_string"* %ref.tmp, metadata !18582, metadata !DIExpression()), !dbg !18586
  call void @llvm.dbg.value(metadata i64 7, metadata !18585, metadata !DIExpression()), !dbg !18588
  %_M_string_length.i.i.i.i.i.i = getelementptr inbounds %"class.std::__cxx11::basic_string", %"class.std::__cxx11::basic_string"* %ref.tmp, i64 0, i32 1, !dbg !18589
  store i64 7, i64* %_M_string_length.i.i.i.i.i.i, align 8, !dbg !18590
  call void @llvm.dbg.value(metadata %"class.std::__cxx11::basic_string"* %ref.tmp, metadata !18417, metadata !DIExpression()), !dbg !18591
  %arrayidx.i.i.i.i.i = getelementptr inbounds i8, i8* %4, i64 7, !dbg !18593
  call void @llvm.dbg.value(metadata i8* %arrayidx.i.i.i.i.i, metadata !18594, metadata !DIExpression()), !dbg !18598
  store i8 0, i8* %arrayidx.i.i.i.i.i, align 1, !dbg !18600
  call void @llvm.dbg.value(metadata %"class.std::random_device"* %rd, metadata !18601, metadata !DIExpression()), !dbg !18606
  call void @llvm.dbg.value(metadata %"class.std::__cxx11::basic_string"* %ref.tmp, metadata !18604, metadata !DIExpression()), !dbg !18608
  invoke void @_ZNSt13random_device7_M_initERKNSt7__cxx1112basic_stringIcSt11char_traitsIcESaIcEEE(%"class.std::random_device"* nonnull %rd, %"class.std::__cxx11::basic_string"* nonnull dereferenceable(32) %ref.tmp)
          to label %invoke.cont4 unwind label %lpad3, !dbg !18609

invoke.cont4:                                     ; preds = %entry
  call void @llvm.dbg.value(metadata %"class.std::__cxx11::basic_string"* %ref.tmp, metadata !18397, metadata !DIExpression()) #14, !dbg !18611
  call void @llvm.dbg.value(metadata %"class.std::__cxx11::basic_string"* %ref.tmp, metadata !18404, metadata !DIExpression()) #14, !dbg !18613
  call void @llvm.dbg.value(metadata %"class.std::__cxx11::basic_string"* %ref.tmp, metadata !18410, metadata !DIExpression()) #14, !dbg !18615
  call void @llvm.dbg.value(metadata %"class.std::__cxx11::basic_string"* %ref.tmp, metadata !18417, metadata !DIExpression()) #14, !dbg !18617
  %5 = load i8*, i8** %_M_p.i.i.i.i.i, align 8, !dbg !18619
  %cmp.i.i.i = icmp eq i8* %5, %4, !dbg !18620
  br i1 %cmp.i.i.i, label %_ZNSt7__cxx1112basic_stringIcSt11char_traitsIcESaIcEED2Ev.exit, label %if.then.i.i, !dbg !18621

if.then.i.i:                                      ; preds = %invoke.cont4
  call void @llvm.dbg.value(metadata %"class.std::__cxx11::basic_string"* %ref.tmp, metadata !18432, metadata !DIExpression()) #14, !dbg !18622
  call void @llvm.dbg.value(metadata %"class.std::__cxx11::basic_string"* %ref.tmp, metadata !18435, metadata !DIExpression(DW_OP_plus_uconst, 16, DW_OP_deref, DW_OP_stack_value)) #14, !dbg !18624
  call void @llvm.dbg.value(metadata %"class.std::__cxx11::basic_string"* %ref.tmp, metadata !18417, metadata !DIExpression()) #14, !dbg !18625
  call void @llvm.dbg.value(metadata %"class.std::__cxx11::basic_string"* %ref.tmp, metadata !18441, metadata !DIExpression()) #14, !dbg !18627
  call void @llvm.dbg.value(metadata i8* %5, metadata !18444, metadata !DIExpression()) #14, !dbg !18629
  call void @llvm.dbg.value(metadata %"class.std::__cxx11::basic_string"* %ref.tmp, metadata !18445, metadata !DIExpression(DW_OP_plus_uconst, 16, DW_OP_deref, DW_OP_plus_uconst, 1, DW_OP_stack_value)) #14, !dbg !18630
  call void @llvm.dbg.value(metadata %"class.std::__cxx11::basic_string"* %ref.tmp, metadata !18450, metadata !DIExpression()) #14, !dbg !18631
  call void @llvm.dbg.value(metadata i8* %5, metadata !18453, metadata !DIExpression()) #14, !dbg !18633
  call void @llvm.dbg.value(metadata %"class.std::__cxx11::basic_string"* %ref.tmp, metadata !18454, metadata !DIExpression(DW_OP_plus_uconst, 16, DW_OP_deref, DW_OP_plus_uconst, 1, DW_OP_stack_value)) #14, !dbg !18634
  call void @_ZdlPv(i8* %5) #14, !dbg !18635
  br label %_ZNSt7__cxx1112basic_stringIcSt11char_traitsIcESaIcEED2Ev.exit, !dbg !18636

_ZNSt7__cxx1112basic_stringIcSt11char_traitsIcESaIcEED2Ev.exit: ; preds = %invoke.cont4, %if.then.i.i
  call void @llvm.lifetime.end.p0i8(i64 32, i8* nonnull %1) #14, !dbg !18466
  %6 = load i8, i8* bitcast (i64* @_ZGVZN4PMGD6RWLock7backoffERmE4dist to i8*), align 8, !dbg !18637
  %guard.uninitialized = icmp eq i8 %6, 0, !dbg !18637
  br i1 %guard.uninitialized, label %invoke.cont8, label %init.end, !dbg !18637, !prof !18638

invoke.cont8:                                     ; preds = %_ZNSt7__cxx1112basic_stringIcSt11char_traitsIcESaIcEED2Ev.exit
  call void @llvm.dbg.value(metadata %"class.std::uniform_int_distribution"* @_ZZN4PMGD6RWLock7backoffERmE4dist, metadata !18639, metadata !DIExpression()), !dbg !18644
  call void @llvm.dbg.value(metadata i64 0, metadata !18642, metadata !DIExpression()), !dbg !18646
  call void @llvm.dbg.value(metadata i64 -1, metadata !18643, metadata !DIExpression()), !dbg !18647
  call void @llvm.dbg.value(metadata %"class.std::uniform_int_distribution"* @_ZZN4PMGD6RWLock7backoffERmE4dist, metadata !18648, metadata !DIExpression()), !dbg !18654
  call void @llvm.dbg.value(metadata i64 0, metadata !18651, metadata !DIExpression()), !dbg !18656
  call void @llvm.dbg.value(metadata i64 -1, metadata !18652, metadata !DIExpression()), !dbg !18657
  store <2 x i64> <i64 0, i64 -1>, <2 x i64>* bitcast (%"class.std::uniform_int_distribution"* @_ZZN4PMGD6RWLock7backoffERmE4dist to <2 x i64>*), align 8, !dbg !18658
  store i64 1, i64* @_ZGVZN4PMGD6RWLock7backoffERmE4dist, align 8, !dbg !18637
  br label %init.end, !dbg !18637

init.end:                                         ; preds = %invoke.cont8, %_ZNSt7__cxx1112basic_stringIcSt11char_traitsIcESaIcEED2Ev.exit
  %7 = load i8, i8* bitcast (i64* @_ZGVZN4PMGD6RWLock7backoffERmE3gen to i8*), align 8, !dbg !18659
  %guard.uninitialized9 = icmp eq i8 %7, 0, !dbg !18659
  br i1 %guard.uninitialized9, label %init.check10, label %init.end14, !dbg !18659, !prof !18638

init.check10:                                     ; preds = %init.end
  call void @llvm.dbg.value(metadata %"class.std::random_device"* %rd, metadata !18660, metadata !DIExpression()), !dbg !18663
  %call.i14 = invoke i32 @_ZNSt13random_device9_M_getvalEv(%"class.std::random_device"* nonnull %rd)
          to label %invoke.cont13 unwind label %lpad7, !dbg !18665

invoke.cont13:                                    ; preds = %init.check10
  call void @llvm.dbg.value(metadata %"class.std::linear_congruential_engine"* @_ZZN4PMGD6RWLock7backoffERmE3gen, metadata !18666, metadata !DIExpression()), !dbg !18671
  call void @llvm.dbg.value(metadata %"class.std::linear_congruential_engine"* @_ZZN4PMGD6RWLock7backoffERmE3gen, metadata !18673, metadata !DIExpression()), !dbg !18678
  call void @llvm.dbg.value(metadata i64 0, metadata !18681, metadata !DIExpression()), !dbg !18688
  call void @llvm.dbg.value(metadata i64 0, metadata !18691, metadata !DIExpression()), !dbg !18701
  call void @llvm.dbg.value(metadata i64 0, metadata !18700, metadata !DIExpression()), !dbg !18703
  call void @llvm.dbg.value(metadata i64 0, metadata !18700, metadata !DIExpression()), !dbg !18703
  %rem.i.i2.i.i22 = urem i32 %call.i14, 2147483647, !dbg !18704
  %cmp3.i.i = icmp eq i32 %rem.i.i2.i.i22, 0, !dbg !18708
  %narrow = select i1 %cmp3.i.i, i32 1, i32 %rem.i.i2.i.i22, !dbg !18709
  %spec.select.i.i = zext i32 %narrow to i64, !dbg !18709
  store i64 %spec.select.i.i, i64* getelementptr inbounds (%"class.std::linear_congruential_engine", %"class.std::linear_congruential_engine"* @_ZZN4PMGD6RWLock7backoffERmE3gen, i64 0, i32 0), align 8, !dbg !18710
  store i64 1, i64* @_ZGVZN4PMGD6RWLock7backoffERmE3gen, align 8, !dbg !18659
  br label %init.end14, !dbg !18659

init.end14:                                       ; preds = %invoke.cont13, %init.end
  %8 = load i64, i64* %cur_max_delay, align 8, !dbg !18711
  call void @llvm.dbg.value(metadata i64 %8, metadata !18361, metadata !DIExpression()), !dbg !18712
  %mul = shl i64 %8, 1, !dbg !18713
  call void @llvm.dbg.value(metadata i64 %mul, metadata !18362, metadata !DIExpression()), !dbg !18714
  %cmp = icmp ult i64 %mul, 10000000, !dbg !18715
  %cond = select i1 %cmp, i64 %mul, i64 10000000, !dbg !18716
  store i64 %cond, i64* %cur_max_delay, align 8, !dbg !18717
  %9 = bitcast %"struct.std::uniform_int_distribution<unsigned long>::param_type"* %ref.tmp15 to i8*, !dbg !18718
  call void @llvm.lifetime.start.p0i8(i64 16, i8* nonnull %9) #14, !dbg !18718
  call void @llvm.dbg.value(metadata %"struct.std::uniform_int_distribution<unsigned long>::param_type"* %ref.tmp15, metadata !18648, metadata !DIExpression()), !dbg !18719
  call void @llvm.dbg.value(metadata i64 %8, metadata !18651, metadata !DIExpression()), !dbg !18721
  call void @llvm.dbg.value(metadata i64 %cond, metadata !18652, metadata !DIExpression()), !dbg !18722
  %_M_a.i = getelementptr inbounds %"struct.std::uniform_int_distribution<unsigned long>::param_type", %"struct.std::uniform_int_distribution<unsigned long>::param_type"* %ref.tmp15, i64 0, i32 0, !dbg !18723
  store i64 %8, i64* %_M_a.i, align 8, !dbg !18723
  %_M_b.i = getelementptr inbounds %"struct.std::uniform_int_distribution<unsigned long>::param_type", %"struct.std::uniform_int_distribution<unsigned long>::param_type"* %ref.tmp15, i64 0, i32 1, !dbg !18724
  store i64 %cond, i64* %_M_b.i, align 8, !dbg !18724
  %call19 = invoke i64 @_ZNSt24uniform_int_distributionImEclISt26linear_congruential_engineImLm48271ELm0ELm2147483647EEEEmRT_RKNS0_10param_typeE(%"class.std::uniform_int_distribution"* nonnull @_ZZN4PMGD6RWLock7backoffERmE4dist, %"class.std::linear_congruential_engine"* nonnull dereferenceable(8) @_ZZN4PMGD6RWLock7backoffERmE3gen, %"struct.std::uniform_int_distribution<unsigned long>::param_type"* nonnull dereferenceable(16) %ref.tmp15)
          to label %invoke.cont18 unwind label %lpad16, !dbg !18725

invoke.cont18:                                    ; preds = %init.end14
  call void @llvm.lifetime.end.p0i8(i64 16, i8* nonnull %9) #14, !dbg !18725
  call void @llvm.dbg.value(metadata i64 %call19, metadata !18363, metadata !DIExpression()), !dbg !18726
  call void @llvm.dbg.value(metadata i64 0, metadata !18364, metadata !DIExpression()), !dbg !18727
  %cmp2123 = icmp eq i64 %call19, 0, !dbg !18728
  br i1 %cmp2123, label %for.cond.cleanup, label %for.body, !dbg !18730

for.cond.cleanup:                                 ; preds = %for.body, %invoke.cont18
  call void @llvm.dbg.value(metadata %"class.std::random_device"* %rd, metadata !18267, metadata !DIExpression(DW_OP_deref)), !dbg !18466
  call void @llvm.dbg.value(metadata %"class.std::random_device"* %rd, metadata !18731, metadata !DIExpression()) #14, !dbg !18734
  invoke void @_ZNSt13random_device7_M_finiEv(%"class.std::random_device"* nonnull %rd)
          to label %_ZNSt13random_deviceD2Ev.exit21 unwind label %terminate.lpad.i20, !dbg !18736

terminate.lpad.i20:                               ; preds = %for.cond.cleanup
  %10 = landingpad { i8*, i32 }
          catch i8* null, !dbg !18736
  %11 = extractvalue { i8*, i32 } %10, 0, !dbg !18736
  call void @__clang_call_terminate(i8* %11) #15, !dbg !18736
  unreachable, !dbg !18736

_ZNSt13random_deviceD2Ev.exit21:                  ; preds = %for.cond.cleanup
  call void @llvm.lifetime.end.p0i8(i64 5000, i8* nonnull %0) #14, !dbg !18738
  ret void, !dbg !18738

lpad3:                                            ; preds = %entry
  %12 = landingpad { i8*, i32 }
          cleanup, !dbg !18738
  %13 = extractvalue { i8*, i32 } %12, 0, !dbg !18738
  %14 = extractvalue { i8*, i32 } %12, 1, !dbg !18738
  call void @llvm.dbg.value(metadata %"class.std::__cxx11::basic_string"* %ref.tmp, metadata !18397, metadata !DIExpression()) #14, !dbg !18739
  call void @llvm.dbg.value(metadata %"class.std::__cxx11::basic_string"* %ref.tmp, metadata !18404, metadata !DIExpression()) #14, !dbg !18741
  call void @llvm.dbg.value(metadata %"class.std::__cxx11::basic_string"* %ref.tmp, metadata !18410, metadata !DIExpression()) #14, !dbg !18743
  call void @llvm.dbg.value(metadata %"class.std::__cxx11::basic_string"* %ref.tmp, metadata !18417, metadata !DIExpression()) #14, !dbg !18745
  %15 = load i8*, i8** %_M_p.i.i.i.i.i, align 8, !dbg !18747
  %cmp.i.i.i17 = icmp eq i8* %15, %4, !dbg !18748
  br i1 %cmp.i.i.i17, label %ehcleanup, label %if.then.i.i18, !dbg !18749

if.then.i.i18:                                    ; preds = %lpad3
  call void @llvm.dbg.value(metadata %"class.std::__cxx11::basic_string"* %ref.tmp, metadata !18432, metadata !DIExpression()) #14, !dbg !18750
  call void @llvm.dbg.value(metadata %"class.std::__cxx11::basic_string"* %ref.tmp, metadata !18435, metadata !DIExpression(DW_OP_plus_uconst, 16, DW_OP_deref, DW_OP_stack_value)) #14, !dbg !18752
  call void @llvm.dbg.value(metadata %"class.std::__cxx11::basic_string"* %ref.tmp, metadata !18417, metadata !DIExpression()) #14, !dbg !18753
  call void @llvm.dbg.value(metadata %"class.std::__cxx11::basic_string"* %ref.tmp, metadata !18441, metadata !DIExpression()) #14, !dbg !18755
  call void @llvm.dbg.value(metadata i8* %15, metadata !18444, metadata !DIExpression()) #14, !dbg !18757
  call void @llvm.dbg.value(metadata %"class.std::__cxx11::basic_string"* %ref.tmp, metadata !18445, metadata !DIExpression(DW_OP_plus_uconst, 16, DW_OP_deref, DW_OP_plus_uconst, 1, DW_OP_stack_value)) #14, !dbg !18758
  call void @llvm.dbg.value(metadata %"class.std::__cxx11::basic_string"* %ref.tmp, metadata !18450, metadata !DIExpression()) #14, !dbg !18759
  call void @llvm.dbg.value(metadata i8* %15, metadata !18453, metadata !DIExpression()) #14, !dbg !18761
  call void @llvm.dbg.value(metadata %"class.std::__cxx11::basic_string"* %ref.tmp, metadata !18454, metadata !DIExpression(DW_OP_plus_uconst, 16, DW_OP_deref, DW_OP_plus_uconst, 1, DW_OP_stack_value)) #14, !dbg !18762
  call void @_ZdlPv(i8* %15) #14, !dbg !18763
  br label %ehcleanup, !dbg !18764

ehcleanup:                                        ; preds = %if.then.i.i18, %lpad3
  call void @llvm.lifetime.end.p0i8(i64 32, i8* nonnull %1) #14, !dbg !18466
  br label %ehcleanup29, !dbg !18466

lpad7:                                            ; preds = %init.check10
  %16 = landingpad { i8*, i32 }
          cleanup, !dbg !18738
  %17 = extractvalue { i8*, i32 } %16, 0, !dbg !18738
  %18 = extractvalue { i8*, i32 } %16, 1, !dbg !18738
  br label %ehcleanup28, !dbg !18738

lpad16:                                           ; preds = %init.end14
  %19 = landingpad { i8*, i32 }
          cleanup, !dbg !18738
  %20 = extractvalue { i8*, i32 } %19, 0, !dbg !18738
  %21 = extractvalue { i8*, i32 } %19, 1, !dbg !18738
  call void @llvm.lifetime.end.p0i8(i64 16, i8* nonnull %9) #14, !dbg !18725
  br label %ehcleanup28, !dbg !18738

for.body:                                         ; preds = %invoke.cont18, %for.body
  %i.024 = phi i64 [ %inc, %for.body ], [ 0, %invoke.cont18 ]
  call void @llvm.dbg.value(metadata i64 %i.024, metadata !18364, metadata !DIExpression()), !dbg !18727
  call void asm sideeffect "pause", "~{dirflag},~{fpsr},~{flags}"() #14, !dbg !18765, !srcloc !18769
  %inc = add nuw i64 %i.024, 1, !dbg !18770
  call void @llvm.dbg.value(metadata i64 %inc, metadata !18364, metadata !DIExpression()), !dbg !18727
  %exitcond = icmp eq i64 %inc, %call19, !dbg !18728
  br i1 %exitcond, label %for.cond.cleanup, label %for.body, !dbg !18730, !llvm.loop !18771

ehcleanup28:                                      ; preds = %lpad16, %lpad7
  %ehselector.slot.1 = phi i32 [ %21, %lpad16 ], [ %18, %lpad7 ], !dbg !18738
  %exn.slot.1 = phi i8* [ %20, %lpad16 ], [ %17, %lpad7 ], !dbg !18738
  call void @llvm.dbg.value(metadata %"class.std::random_device"* %rd, metadata !18267, metadata !DIExpression(DW_OP_deref)), !dbg !18466
  call void @llvm.dbg.value(metadata %"class.std::random_device"* %rd, metadata !18731, metadata !DIExpression()) #14, !dbg !18773
  invoke void @_ZNSt13random_device7_M_finiEv(%"class.std::random_device"* nonnull %rd)
          to label %ehcleanup29 unwind label %terminate.lpad.i, !dbg !18775

terminate.lpad.i:                                 ; preds = %ehcleanup28
  %22 = landingpad { i8*, i32 }
          catch i8* null, !dbg !18775
  %23 = extractvalue { i8*, i32 } %22, 0, !dbg !18775
  call void @__clang_call_terminate(i8* %23) #15, !dbg !18775
  unreachable, !dbg !18775

ehcleanup29:                                      ; preds = %ehcleanup28, %ehcleanup
  %ehselector.slot.2 = phi i32 [ %14, %ehcleanup ], [ %ehselector.slot.1, %ehcleanup28 ], !dbg !18738
  %exn.slot.2 = phi i8* [ %13, %ehcleanup ], [ %exn.slot.1, %ehcleanup28 ], !dbg !18738
  call void @llvm.lifetime.end.p0i8(i64 5000, i8* nonnull %0) #14, !dbg !18738
  %lpad.val = insertvalue { i8*, i32 } undef, i8* %exn.slot.2, 0, !dbg !18738
  %lpad.val30 = insertvalue { i8*, i32 } %lpad.val, i32 %ehselector.slot.2, 1, !dbg !18738
  resume { i8*, i32 } %lpad.val30, !dbg !18738
}

; Function Attrs: uwtable
define linkonce_odr i64 @_ZNSt24uniform_int_distributionImEclISt26linear_congruential_engineImLm48271ELm0ELm2147483647EEEEmRT_RKNS0_10param_typeE(%"class.std::uniform_int_distribution"* %this, %"class.std::linear_congruential_engine"* dereferenceable(8) %__urng, %"struct.std::uniform_int_distribution<unsigned long>::param_type"* dereferenceable(16) %__param) local_unnamed_addr #6 comdat align 2 !dbg !16618 {
entry:
  %ref.tmp = alloca %"struct.std::uniform_int_distribution<unsigned long>::param_type", align 8
  call void @llvm.dbg.value(metadata %"class.std::uniform_int_distribution"* %this, metadata !16699, metadata !DIExpression()), !dbg !18776
  call void @llvm.dbg.value(metadata %"class.std::linear_congruential_engine"* %__urng, metadata !16701, metadata !DIExpression()), !dbg !18777
  call void @llvm.dbg.value(metadata %"struct.std::uniform_int_distribution<unsigned long>::param_type"* %__param, metadata !16702, metadata !DIExpression()), !dbg !18778
  call void @llvm.dbg.value(metadata i64 1, metadata !16703, metadata !DIExpression()), !dbg !18779
  call void @llvm.dbg.value(metadata i64 2147483646, metadata !16705, metadata !DIExpression()), !dbg !18780
  call void @llvm.dbg.value(metadata i64 2147483645, metadata !16706, metadata !DIExpression()), !dbg !18781
  call void @llvm.dbg.value(metadata %"struct.std::uniform_int_distribution<unsigned long>::param_type"* %__param, metadata !18782, metadata !DIExpression()), !dbg !18786
  %_M_b.i44 = getelementptr inbounds %"struct.std::uniform_int_distribution<unsigned long>::param_type", %"struct.std::uniform_int_distribution<unsigned long>::param_type"* %__param, i64 0, i32 1, !dbg !18788
  %0 = load i64, i64* %_M_b.i44, align 8, !dbg !18788
  call void @llvm.dbg.value(metadata %"struct.std::uniform_int_distribution<unsigned long>::param_type"* %__param, metadata !18789, metadata !DIExpression()), !dbg !18792
  %_M_a.i43 = getelementptr inbounds %"struct.std::uniform_int_distribution<unsigned long>::param_type", %"struct.std::uniform_int_distribution<unsigned long>::param_type"* %__param, i64 0, i32 0, !dbg !18794
  %1 = load i64, i64* %_M_a.i43, align 8, !dbg !18794
  %sub5 = sub i64 %0, %1, !dbg !18795
  call void @llvm.dbg.value(metadata i64 %sub5, metadata !16707, metadata !DIExpression()), !dbg !18796
  %cmp = icmp ult i64 %sub5, 2147483645, !dbg !18797
  br i1 %cmp, label %if.then, label %if.else, !dbg !18798

if.then:                                          ; preds = %entry
  %add = add i64 %sub5, 1, !dbg !18799
  call void @llvm.dbg.value(metadata i64 %add, metadata !16709, metadata !DIExpression()), !dbg !18800
  %div.rhs.trunc = trunc i64 %add to i32, !dbg !18801
  %div45 = udiv i32 2147483645, %div.rhs.trunc, !dbg !18801
  %div.zext = zext i32 %div45 to i64, !dbg !18801
  call void @llvm.dbg.value(metadata i64 %div.zext, metadata !16712, metadata !DIExpression()), !dbg !18802
  %mul = mul i64 %add, %div.zext, !dbg !18803
  call void @llvm.dbg.value(metadata i64 %mul, metadata !16713, metadata !DIExpression()), !dbg !18804
  %_M_x.i40 = getelementptr inbounds %"class.std::linear_congruential_engine", %"class.std::linear_congruential_engine"* %__urng, i64 0, i32 0
  %_M_x.i40.promoted = load i64, i64* %_M_x.i40, align 8, !dbg !18805
  br label %do.body, !dbg !18810

do.body:                                          ; preds = %do.body, %if.then
  %rem.i.i.i4246 = phi i64 [ %rem.i.i.i42, %do.body ], [ %_M_x.i40.promoted, %if.then ], !dbg !18811
  call void @llvm.dbg.value(metadata %"class.std::linear_congruential_engine"* %__urng, metadata !18808, metadata !DIExpression()), !dbg !18811
  call void @llvm.dbg.value(metadata i64 %rem.i.i.i4246, metadata !18812, metadata !DIExpression()), !dbg !18816
  call void @llvm.dbg.value(metadata i64 %rem.i.i.i4246, metadata !18818, metadata !DIExpression()), !dbg !18826
  %mul.i.i.i41 = mul i64 %rem.i.i.i4246, 48271, !dbg !18828
  call void @llvm.dbg.value(metadata i64 %mul.i.i.i41, metadata !18825, metadata !DIExpression()), !dbg !18829
  %rem.i.i.i42 = urem i64 %mul.i.i.i41, 2147483647, !dbg !18830
  call void @llvm.dbg.value(metadata i64 %rem.i.i.i42, metadata !18825, metadata !DIExpression()), !dbg !18829
  %sub7 = add nsw i64 %rem.i.i.i42, -1, !dbg !18832
  call void @llvm.dbg.value(metadata i64 %sub7, metadata !16708, metadata !DIExpression()), !dbg !18833
  %cmp8 = icmp ult i64 %sub7, %mul, !dbg !18834
  br i1 %cmp8, label %do.end, label %do.body, !dbg !18835, !llvm.loop !18836

do.end:                                           ; preds = %do.body
  store i64 %rem.i.i.i42, i64* %_M_x.i40, align 8, !dbg !18805
  %div9 = udiv i64 %sub7, %div.zext, !dbg !18838
  call void @llvm.dbg.value(metadata i64 %div9, metadata !16708, metadata !DIExpression()), !dbg !18833
  br label %if.end27, !dbg !18839

if.else:                                          ; preds = %entry
  %cmp10 = icmp eq i64 %sub5, 2147483645, !dbg !18840
  br i1 %cmp10, label %if.else24, label %do.body12.preheader, !dbg !18841

do.body12.preheader:                              ; preds = %if.else
  %2 = bitcast %"struct.std::uniform_int_distribution<unsigned long>::param_type"* %ref.tmp to i8*
  %div14 = udiv i64 %sub5, 2147483646
  %_M_a.i39 = getelementptr inbounds %"struct.std::uniform_int_distribution<unsigned long>::param_type", %"struct.std::uniform_int_distribution<unsigned long>::param_type"* %ref.tmp, i64 0, i32 0
  %_M_b.i = getelementptr inbounds %"struct.std::uniform_int_distribution<unsigned long>::param_type", %"struct.std::uniform_int_distribution<unsigned long>::param_type"* %ref.tmp, i64 0, i32 1
  %_M_x.i36 = getelementptr inbounds %"class.std::linear_congruential_engine", %"class.std::linear_congruential_engine"* %__urng, i64 0, i32 0
  br label %do.body12, !dbg !18842

do.body12:                                        ; preds = %do.body12.preheader, %do.body12
  call void @llvm.dbg.value(metadata i64 2147483646, metadata !16717, metadata !DIExpression()), !dbg !18843
  call void @llvm.lifetime.start.p0i8(i64 16, i8* nonnull %2) #14, !dbg !18842
  call void @llvm.dbg.value(metadata %"struct.std::uniform_int_distribution<unsigned long>::param_type"* %ref.tmp, metadata !18648, metadata !DIExpression()), !dbg !18844
  call void @llvm.dbg.value(metadata i64 0, metadata !18651, metadata !DIExpression()), !dbg !18846
  call void @llvm.dbg.value(metadata i64 %div14, metadata !18652, metadata !DIExpression()), !dbg !18847
  store i64 0, i64* %_M_a.i39, align 8, !dbg !18848
  store i64 %div14, i64* %_M_b.i, align 8, !dbg !18849
  %call15 = call i64 @_ZNSt24uniform_int_distributionImEclISt26linear_congruential_engineImLm48271ELm0ELm2147483647EEEEmRT_RKNS0_10param_typeE(%"class.std::uniform_int_distribution"* %this, %"class.std::linear_congruential_engine"* nonnull dereferenceable(8) %__urng, %"struct.std::uniform_int_distribution<unsigned long>::param_type"* nonnull dereferenceable(16) %ref.tmp), !dbg !18850
  %mul16 = mul i64 %call15, 2147483646, !dbg !18851
  call void @llvm.dbg.value(metadata i64 %mul16, metadata !16714, metadata !DIExpression()), !dbg !18852
  call void @llvm.lifetime.end.p0i8(i64 16, i8* nonnull %2) #14, !dbg !18853
  call void @llvm.dbg.value(metadata %"class.std::linear_congruential_engine"* %__urng, metadata !18808, metadata !DIExpression()), !dbg !18854
  %3 = load i64, i64* %_M_x.i36, align 8, !dbg !18856
  call void @llvm.dbg.value(metadata i64 %3, metadata !18812, metadata !DIExpression()), !dbg !18857
  call void @llvm.dbg.value(metadata i64 %3, metadata !18818, metadata !DIExpression()), !dbg !18859
  %mul.i.i.i37 = mul i64 %3, 48271, !dbg !18861
  call void @llvm.dbg.value(metadata i64 %mul.i.i.i37, metadata !18825, metadata !DIExpression()), !dbg !18862
  %rem.i.i.i38 = urem i64 %mul.i.i.i37, 2147483647, !dbg !18863
  call void @llvm.dbg.value(metadata i64 %rem.i.i.i38, metadata !18825, metadata !DIExpression()), !dbg !18862
  store i64 %rem.i.i.i38, i64* %_M_x.i36, align 8, !dbg !18864
  %sub18 = add i64 %mul16, -1, !dbg !18865
  %add19 = add i64 %sub18, %rem.i.i.i38, !dbg !18866
  call void @llvm.dbg.value(metadata i64 %add19, metadata !16708, metadata !DIExpression()), !dbg !18833
  %cmp21 = icmp ugt i64 %add19, %sub5, !dbg !18867
  %cmp22 = icmp ult i64 %add19, %mul16, !dbg !18868
  %or.cond = or i1 %cmp21, %cmp22, !dbg !18869
  br i1 %or.cond, label %do.body12, label %if.end27, !dbg !18869, !llvm.loop !18870

if.else24:                                        ; preds = %if.else
  call void @llvm.dbg.value(metadata %"class.std::linear_congruential_engine"* %__urng, metadata !18808, metadata !DIExpression()), !dbg !18873
  %_M_x.i = getelementptr inbounds %"class.std::linear_congruential_engine", %"class.std::linear_congruential_engine"* %__urng, i64 0, i32 0, !dbg !18875
  %4 = load i64, i64* %_M_x.i, align 8, !dbg !18875
  call void @llvm.dbg.value(metadata i64 %4, metadata !18812, metadata !DIExpression()), !dbg !18876
  call void @llvm.dbg.value(metadata i64 %4, metadata !18818, metadata !DIExpression()), !dbg !18878
  %mul.i.i.i = mul i64 %4, 48271, !dbg !18880
  call void @llvm.dbg.value(metadata i64 %mul.i.i.i, metadata !18825, metadata !DIExpression()), !dbg !18881
  %rem.i.i.i = urem i64 %mul.i.i.i, 2147483647, !dbg !18882
  call void @llvm.dbg.value(metadata i64 %rem.i.i.i, metadata !18825, metadata !DIExpression()), !dbg !18881
  store i64 %rem.i.i.i, i64* %_M_x.i, align 8, !dbg !18883
  %sub26 = add nsw i64 %rem.i.i.i, -1, !dbg !18884
  call void @llvm.dbg.value(metadata i64 %sub26, metadata !16708, metadata !DIExpression()), !dbg !18833
  br label %if.end27

if.end27:                                         ; preds = %do.body12, %if.else24, %do.end
  %__ret.0 = phi i64 [ %div9, %do.end ], [ %sub26, %if.else24 ], [ %add19, %do.body12 ], !dbg !18885
  call void @llvm.dbg.value(metadata i64 %__ret.0, metadata !16708, metadata !DIExpression()), !dbg !18833
  call void @llvm.dbg.value(metadata %"struct.std::uniform_int_distribution<unsigned long>::param_type"* %__param, metadata !18789, metadata !DIExpression()), !dbg !18886
  %5 = load i64, i64* %_M_a.i43, align 8, !dbg !18888
  %add29 = add i64 %5, %__ret.0, !dbg !18889
  ret i64 %add29, !dbg !18890
}

; Function Attrs: uwtable
define linkonce_odr void @_ZN4PMGD6RWLock9read_lockEv(%"class.PMGD::RWLock"* %this) local_unnamed_addr #6 comdat align 2 personality i8* bitcast (i32 (...)* @__gxx_personality_v0 to i8*) !dbg !18891 {
entry:
  %cur_max_delay = alloca i64, align 8
  call void @llvm.dbg.value(metadata %"class.PMGD::RWLock"* %this, metadata !18893, metadata !DIExpression()), !dbg !18898
  %0 = bitcast i64* %cur_max_delay to i8*, !dbg !18899
  call void @llvm.lifetime.start.p0i8(i64 8, i8* nonnull %0) #14, !dbg !18899
  call void @llvm.dbg.value(metadata i64 100000, metadata !18894, metadata !DIExpression()), !dbg !18900
  store i64 100000, i64* %cur_max_delay, align 8, !dbg !18900
  call void @llvm.dbg.value(metadata i32 0, metadata !18895, metadata !DIExpression()), !dbg !18901
  %_rw_lock = getelementptr inbounds %"class.PMGD::RWLock", %"class.PMGD::RWLock"* %this, i64 0, i32 0, !dbg !18902
  call void @llvm.dbg.value(metadata %"class.PMGD::RWLock"* %this, metadata !18903, metadata !DIExpression()), !dbg !18908
  call void @llvm.dbg.value(metadata i16* %_rw_lock, metadata !18906, metadata !DIExpression()), !dbg !18910
  call void @llvm.dbg.value(metadata i16 1, metadata !18907, metadata !DIExpression()), !dbg !18911
  call void @llvm.dbg.value(metadata i16* %_rw_lock, metadata !18912, metadata !DIExpression()) #14, !dbg !18923
  call void @llvm.dbg.value(metadata i16 1, metadata !18919, metadata !DIExpression()) #14, !dbg !18925
  call void @llvm.dbg.value(metadata i16 1, metadata !18920, metadata !DIExpression()) #14, !dbg !18926
  %1 = call i16 asm sideeffect "lock xadd $1, $0", "=*m,=r,*m,1,~{dirflag},~{fpsr},~{flags}"(i16* nonnull %_rw_lock, i16* nonnull %_rw_lock, i16 1) #14, !dbg !18927, !srcloc !18928
  call void @llvm.dbg.value(metadata i16 %1, metadata !18920, metadata !DIExpression()) #14, !dbg !18926
  call void @llvm.dbg.value(metadata i16 %1, metadata !18896, metadata !DIExpression()), !dbg !18929
  %2 = and i16 %1, 32767, !dbg !18930
  %cmp7 = icmp eq i16 %2, 32767, !dbg !18930
  br i1 %cmp7, label %cond.false, label %cond.end, !dbg !18930

while.cond.loopexit:                              ; preds = %if.end14, %if.end
  %attempts.1.lcssa = phi i32 [ %attempts.08, %if.end ], [ %inc, %if.end14 ], !dbg !18898
  call void @llvm.dbg.value(metadata i32 %attempts.1.lcssa, metadata !18895, metadata !DIExpression()), !dbg !18901
  call void @llvm.dbg.value(metadata %"class.PMGD::RWLock"* %this, metadata !18903, metadata !DIExpression()), !dbg !18908
  call void @llvm.dbg.value(metadata i16* %_rw_lock, metadata !18906, metadata !DIExpression()), !dbg !18910
  call void @llvm.dbg.value(metadata i16 1, metadata !18907, metadata !DIExpression()), !dbg !18911
  call void @llvm.dbg.value(metadata i16* %_rw_lock, metadata !18912, metadata !DIExpression()) #14, !dbg !18923
  call void @llvm.dbg.value(metadata i16 1, metadata !18919, metadata !DIExpression()) #14, !dbg !18925
  call void @llvm.dbg.value(metadata i16 1, metadata !18920, metadata !DIExpression()) #14, !dbg !18926
  %3 = call i16 asm sideeffect "lock xadd $1, $0", "=*m,=r,*m,1,~{dirflag},~{fpsr},~{flags}"(i16* nonnull %_rw_lock, i16* nonnull %_rw_lock, i16 1) #14, !dbg !18927, !srcloc !18928
  call void @llvm.dbg.value(metadata i16 %3, metadata !18920, metadata !DIExpression()) #14, !dbg !18926
  call void @llvm.dbg.value(metadata i16 %3, metadata !18896, metadata !DIExpression()), !dbg !18929
  %4 = and i16 %3, 32767, !dbg !18930
  %cmp = icmp eq i16 %4, 32767, !dbg !18930
  br i1 %cmp, label %cond.false, label %cond.end, !dbg !18930

cond.false:                                       ; preds = %while.cond.loopexit, %entry
  call void @__assert_fail(i8* getelementptr inbounds ([43 x i8], [43 x i8]* @.str.39, i64 0, i64 0), i8* getelementptr inbounds ([11 x i8], [11 x i8]* @.str.40, i64 0, i64 0), i32 89, i8* getelementptr inbounds ([31 x i8], [31 x i8]* @__PRETTY_FUNCTION__._ZN4PMGD6RWLock9read_lockEv, i64 0, i64 0)) #15, !dbg !18930
  unreachable, !dbg !18930

cond.end:                                         ; preds = %entry, %while.cond.loopexit
  %5 = phi i16 [ %3, %while.cond.loopexit ], [ %1, %entry ]
  %attempts.08 = phi i32 [ %attempts.1.lcssa, %while.cond.loopexit ], [ 0, %entry ]
  call void @llvm.dbg.value(metadata i32 %attempts.08, metadata !18895, metadata !DIExpression()), !dbg !18901
  %cmp4 = icmp sgt i16 %5, -1, !dbg !18931
  br i1 %cmp4, label %cleanup15, label %if.end, !dbg !18933

if.end:                                           ; preds = %cond.end
  call void @llvm.dbg.value(metadata %"class.PMGD::RWLock"* %this, metadata !18903, metadata !DIExpression()), !dbg !18934
  call void @llvm.dbg.value(metadata i16* %_rw_lock, metadata !18906, metadata !DIExpression()), !dbg !18936
  call void @llvm.dbg.value(metadata i16 -1, metadata !18907, metadata !DIExpression()), !dbg !18937
  call void @llvm.dbg.value(metadata i16* %_rw_lock, metadata !18912, metadata !DIExpression()) #14, !dbg !18938
  call void @llvm.dbg.value(metadata i16 -1, metadata !18919, metadata !DIExpression()) #14, !dbg !18940
  call void @llvm.dbg.value(metadata i16 -1, metadata !18920, metadata !DIExpression()) #14, !dbg !18941
  %6 = call i16 asm sideeffect "lock xadd $1, $0", "=*m,=r,*m,1,~{dirflag},~{fpsr},~{flags}"(i16* nonnull %_rw_lock, i16* nonnull %_rw_lock, i16 -1) #14, !dbg !18942, !srcloc !18928
  call void @llvm.dbg.value(metadata i16 %6, metadata !18920, metadata !DIExpression()) #14, !dbg !18941
  call void @llvm.dbg.value(metadata i32 %attempts.08, metadata !18895, metadata !DIExpression()), !dbg !18901
  %7 = load volatile i16, i16* %_rw_lock, align 2, !dbg !18943
  %tobool5 = icmp slt i16 %7, 0, !dbg !18943
  br i1 %tobool5, label %while.body11, label %while.cond.loopexit, !dbg !18944

while.body11:                                     ; preds = %if.end, %if.end14
  %attempts.16 = phi i32 [ %inc, %if.end14 ], [ %attempts.08, %if.end ]
  call void @llvm.dbg.value(metadata i32 %attempts.16, metadata !18895, metadata !DIExpression()), !dbg !18901
  %inc = add i32 %attempts.16, 1, !dbg !18945
  %cmp12 = icmp ugt i32 %inc, 10, !dbg !18948
  br i1 %cmp12, label %if.then13, label %if.end14, !dbg !18949

if.then13:                                        ; preds = %while.body11
  %exception = call i8* @__cxa_allocate_exception(i64 72) #14, !dbg !18950
  call void @llvm.dbg.value(metadata i8* %exception, metadata !18951, metadata !DIExpression()), !dbg !18958
  call void @llvm.dbg.value(metadata i32 14, metadata !18954, metadata !DIExpression()), !dbg !18960
  call void @llvm.dbg.value(metadata i8* getelementptr inbounds ([12 x i8], [12 x i8]* @.str.41, i64 0, i64 0), metadata !18955, metadata !DIExpression()), !dbg !18961
  call void @llvm.dbg.value(metadata i8* getelementptr inbounds ([11 x i8], [11 x i8]* @.str.40, i64 0, i64 0), metadata !18956, metadata !DIExpression()), !dbg !18962
  call void @llvm.dbg.value(metadata i32 99, metadata !18957, metadata !DIExpression()), !dbg !18963
  %num.i = bitcast i8* %exception to i32*, !dbg !18964
  store i32 14, i32* %num.i, align 8, !dbg !18964
  %name.i = getelementptr inbounds i8, i8* %exception, i64 8, !dbg !18965
  %8 = bitcast i8* %name.i to i8**, !dbg !18965
  store i8* getelementptr inbounds ([12 x i8], [12 x i8]* @.str.41, i64 0, i64 0), i8** %8, align 8, !dbg !18965
  %msg.i = getelementptr inbounds i8, i8* %exception, i64 16, !dbg !18966
  call void @llvm.dbg.value(metadata i8* %msg.i, metadata !18967, metadata !DIExpression()), !dbg !18970
  call void @llvm.dbg.value(metadata i8* %msg.i, metadata !18476, metadata !DIExpression()), !dbg !18972
  %9 = getelementptr inbounds i8, i8* %exception, i64 32, !dbg !18974
  call void @llvm.dbg.value(metadata i8* %msg.i, metadata !18482, metadata !DIExpression()), !dbg !18975
  call void @llvm.dbg.value(metadata i8* %9, metadata !18485, metadata !DIExpression()), !dbg !18977
  call void @llvm.dbg.value(metadata %"class.std::allocator"* undef, metadata !18486, metadata !DIExpression()), !dbg !18978
  %10 = bitcast i8* %msg.i to i8**, !dbg !18979
  store i8* %9, i8** %10, align 8, !dbg !18979
  call void @llvm.dbg.value(metadata i8** %10, metadata !18575, metadata !DIExpression()), !dbg !18980
  call void @llvm.dbg.value(metadata i64 0, metadata !18578, metadata !DIExpression()), !dbg !18983
  call void @llvm.dbg.value(metadata i8** %10, metadata !18582, metadata !DIExpression()), !dbg !18984
  call void @llvm.dbg.value(metadata i64 0, metadata !18585, metadata !DIExpression()), !dbg !18986
  %_M_string_length.i.i.i.i = getelementptr inbounds i8, i8* %exception, i64 24, !dbg !18987
  %11 = bitcast i8* %_M_string_length.i.i.i.i to i64*, !dbg !18987
  store i64 0, i64* %11, align 8, !dbg !18988
  call void @llvm.dbg.value(metadata i8* %9, metadata !18594, metadata !DIExpression()), !dbg !18989
  store i8 0, i8* %9, align 1, !dbg !18991
  %errno_val.i = getelementptr inbounds i8, i8* %exception, i64 48, !dbg !18992
  %12 = bitcast i8* %errno_val.i to i32*, !dbg !18992
  store i32 0, i32* %12, align 8, !dbg !18992
  %file.i = getelementptr inbounds i8, i8* %exception, i64 56, !dbg !18993
  %13 = bitcast i8* %file.i to i8**, !dbg !18993
  store i8* getelementptr inbounds ([11 x i8], [11 x i8]* @.str.40, i64 0, i64 0), i8** %13, align 8, !dbg !18993
  %line.i = getelementptr inbounds i8, i8* %exception, i64 64, !dbg !18994
  %14 = bitcast i8* %line.i to i32*, !dbg !18994
  store i32 99, i32* %14, align 8, !dbg !18994
  call void @__cxa_throw(i8* %exception, i8* bitcast ({ i8*, i8* }* @_ZTIN4PMGD9ExceptionE to i8*), i8* bitcast (void (%"struct.PMGD::Exception"*)* @_ZN4PMGD9ExceptionD2Ev to i8*)) #16, !dbg !18950
  unreachable, !dbg !18950

if.end14:                                         ; preds = %while.body11
  call void @llvm.dbg.value(metadata i64* %cur_max_delay, metadata !18894, metadata !DIExpression(DW_OP_deref)), !dbg !18900
  call void @_ZN4PMGD6RWLock7backoffERm(%"class.PMGD::RWLock"* nonnull %this, i64* nonnull dereferenceable(8) %cur_max_delay), !dbg !18995
  call void @llvm.dbg.value(metadata i32 %inc, metadata !18895, metadata !DIExpression()), !dbg !18901
  %15 = load volatile i16, i16* %_rw_lock, align 2, !dbg !18943
  %tobool = icmp slt i16 %15, 0, !dbg !18943
  br i1 %tobool, label %while.body11, label %while.cond.loopexit, !dbg !18944, !llvm.loop !18996

cleanup15:                                        ; preds = %cond.end
  call void @llvm.dbg.value(metadata i32 undef, metadata !18895, metadata !DIExpression()), !dbg !18901
  call void @llvm.lifetime.end.p0i8(i64 8, i8* nonnull %0) #14, !dbg !18998
  ret void, !dbg !18998
}

; Function Attrs: uwtable
define linkonce_odr void @_ZN4PMGD6RWLock10write_lockEv(%"class.PMGD::RWLock"* %this) local_unnamed_addr #6 comdat align 2 personality i8* bitcast (i32 (...)* @__gxx_personality_v0 to i8*) !dbg !18999 {
entry:
  %cur_max_delay = alloca i64, align 8
  call void @llvm.dbg.value(metadata %"class.PMGD::RWLock"* %this, metadata !19001, metadata !DIExpression()), !dbg !19004
  %0 = bitcast i64* %cur_max_delay to i8*, !dbg !19005
  call void @llvm.lifetime.start.p0i8(i64 8, i8* nonnull %0) #14, !dbg !19005
  call void @llvm.dbg.value(metadata i64 100000, metadata !19002, metadata !DIExpression()), !dbg !19006
  store i64 100000, i64* %cur_max_delay, align 8, !dbg !19006
  call void @llvm.dbg.value(metadata i32 0, metadata !19003, metadata !DIExpression()), !dbg !19007
  %_rw_lock = getelementptr inbounds %"class.PMGD::RWLock", %"class.PMGD::RWLock"* %this, i64 0, i32 0, !dbg !19008
  call void @llvm.dbg.value(metadata i16* %_rw_lock, metadata !19011, metadata !DIExpression()) #14, !dbg !19018
  call void @llvm.dbg.value(metadata i32 15, metadata !19016, metadata !DIExpression()) #14, !dbg !19020
  call void @llvm.dbg.value(metadata i8 0, metadata !19017, metadata !DIExpression()) #14, !dbg !19021
  %1 = call i8 asm sideeffect "lock bts${1:z} $2, $1\0A; setc $0", "=q,=*m,Ir,*m,~{memory},~{cc},~{dirflag},~{fpsr},~{flags}"(i16* nonnull %_rw_lock, i16 15, i16* nonnull %_rw_lock) #14, !dbg !19022, !srcloc !19023
  call void @llvm.dbg.value(metadata i8 %1, metadata !19017, metadata !DIExpression()) #14, !dbg !19021
  %2 = and i8 %1, 1, !dbg !19024
  %tobool.i17 = icmp eq i8 %2, 0, !dbg !19024
  br i1 %tobool.i17, label %while.cond2.preheader, label %while.cond10.preheader, !dbg !19025

while.cond.loopexit:                              ; preds = %if.end22, %while.cond10.preheader
  %attempts.2.lcssa = phi i32 [ %attempts.018, %while.cond10.preheader ], [ %inc16, %if.end22 ], !dbg !19004
  call void @llvm.dbg.value(metadata i32 %attempts.2.lcssa, metadata !19003, metadata !DIExpression()), !dbg !19007
  call void @llvm.dbg.value(metadata i16* %_rw_lock, metadata !19011, metadata !DIExpression()) #14, !dbg !19018
  call void @llvm.dbg.value(metadata i32 15, metadata !19016, metadata !DIExpression()) #14, !dbg !19020
  call void @llvm.dbg.value(metadata i8 0, metadata !19017, metadata !DIExpression()) #14, !dbg !19021
  %3 = call i8 asm sideeffect "lock bts${1:z} $2, $1\0A; setc $0", "=q,=*m,Ir,*m,~{memory},~{cc},~{dirflag},~{fpsr},~{flags}"(i16* nonnull %_rw_lock, i16 15, i16* nonnull %_rw_lock) #14, !dbg !19022, !srcloc !19023
  call void @llvm.dbg.value(metadata i8 %3, metadata !19017, metadata !DIExpression()) #14, !dbg !19021
  %4 = and i8 %3, 1, !dbg !19024
  %tobool.i = icmp eq i8 %4, 0, !dbg !19024
  br i1 %tobool.i, label %while.cond2.preheader, label %while.cond10.preheader, !dbg !19025

while.cond10.preheader:                           ; preds = %entry, %while.cond.loopexit
  %attempts.018 = phi i32 [ %attempts.2.lcssa, %while.cond.loopexit ], [ 0, %entry ]
  call void @llvm.dbg.value(metadata i32 %attempts.018, metadata !19003, metadata !DIExpression()), !dbg !19007
  call void @llvm.dbg.value(metadata i32 %attempts.018, metadata !19003, metadata !DIExpression()), !dbg !19007
  %5 = load volatile i16, i16* %_rw_lock, align 2, !dbg !19026
  %tobool1415 = icmp slt i16 %5, 0, !dbg !19026
  br i1 %tobool1415, label %while.body15, label %while.cond.loopexit, !dbg !19027, !llvm.loop !19028

while.cond2.preheader:                            ; preds = %while.cond.loopexit, %entry
  call void @llvm.dbg.value(metadata i32 0, metadata !19003, metadata !DIExpression()), !dbg !19007
  %6 = load volatile i16, i16* %_rw_lock, align 2, !dbg !19031
  %7 = and i16 %6, 32767, !dbg !19033
  %tobool13 = icmp eq i16 %7, 0, !dbg !19031
  br i1 %tobool13, label %while.end, label %while.body5, !dbg !19034

while.body5:                                      ; preds = %while.cond2.preheader, %if.end
  %attempts.114 = phi i32 [ %inc, %if.end ], [ 0, %while.cond2.preheader ]
  call void @llvm.dbg.value(metadata i32 %attempts.114, metadata !19003, metadata !DIExpression()), !dbg !19007
  %cmp6 = icmp ugt i32 %attempts.114, 9, !dbg !19035
  br i1 %cmp6, label %if.then7, label %if.end, !dbg !19038

if.then7:                                         ; preds = %while.body5
  call void @llvm.dbg.value(metadata %"class.PMGD::RWLock"* %this, metadata !19039, metadata !DIExpression()), !dbg !19044
  call void @llvm.dbg.value(metadata i16* %_rw_lock, metadata !19042, metadata !DIExpression()), !dbg !19047
  call void @llvm.dbg.value(metadata i16 32767, metadata !19043, metadata !DIExpression()), !dbg !19048
  call void @llvm.dbg.value(metadata i16* %_rw_lock, metadata !19049, metadata !DIExpression()) #14, !dbg !19055
  call void @llvm.dbg.value(metadata i16 32767, metadata !19054, metadata !DIExpression()) #14, !dbg !19057
  call void asm sideeffect "lock and${0:z} $1, $0", "=*m,ri,*m,~{dirflag},~{fpsr},~{flags}"(i16* nonnull %_rw_lock, i16 32767, i16* nonnull %_rw_lock) #14, !dbg !19058, !srcloc !19059
  %exception = call i8* @__cxa_allocate_exception(i64 72) #14, !dbg !19060
  call void @llvm.dbg.value(metadata i8* %exception, metadata !18951, metadata !DIExpression()), !dbg !19061
  call void @llvm.dbg.value(metadata i32 14, metadata !18954, metadata !DIExpression()), !dbg !19063
  call void @llvm.dbg.value(metadata i8* getelementptr inbounds ([12 x i8], [12 x i8]* @.str.41, i64 0, i64 0), metadata !18955, metadata !DIExpression()), !dbg !19064
  call void @llvm.dbg.value(metadata i8* getelementptr inbounds ([11 x i8], [11 x i8]* @.str.40, i64 0, i64 0), metadata !18956, metadata !DIExpression()), !dbg !19065
  call void @llvm.dbg.value(metadata i32 125, metadata !18957, metadata !DIExpression()), !dbg !19066
  %num.i = bitcast i8* %exception to i32*, !dbg !19067
  store i32 14, i32* %num.i, align 8, !dbg !19067
  %name.i = getelementptr inbounds i8, i8* %exception, i64 8, !dbg !19068
  %8 = bitcast i8* %name.i to i8**, !dbg !19068
  store i8* getelementptr inbounds ([12 x i8], [12 x i8]* @.str.41, i64 0, i64 0), i8** %8, align 8, !dbg !19068
  %msg.i = getelementptr inbounds i8, i8* %exception, i64 16, !dbg !19069
  call void @llvm.dbg.value(metadata i8* %msg.i, metadata !18967, metadata !DIExpression()), !dbg !19070
  call void @llvm.dbg.value(metadata i8* %msg.i, metadata !18476, metadata !DIExpression()), !dbg !19072
  %9 = getelementptr inbounds i8, i8* %exception, i64 32, !dbg !19074
  call void @llvm.dbg.value(metadata i8* %msg.i, metadata !18482, metadata !DIExpression()), !dbg !19075
  call void @llvm.dbg.value(metadata i8* %9, metadata !18485, metadata !DIExpression()), !dbg !19077
  call void @llvm.dbg.value(metadata %"class.std::allocator"* undef, metadata !18486, metadata !DIExpression()), !dbg !19078
  %10 = bitcast i8* %msg.i to i8**, !dbg !19079
  store i8* %9, i8** %10, align 8, !dbg !19079
  call void @llvm.dbg.value(metadata i8** %10, metadata !18575, metadata !DIExpression()), !dbg !19080
  call void @llvm.dbg.value(metadata i64 0, metadata !18578, metadata !DIExpression()), !dbg !19082
  call void @llvm.dbg.value(metadata i8** %10, metadata !18582, metadata !DIExpression()), !dbg !19083
  call void @llvm.dbg.value(metadata i64 0, metadata !18585, metadata !DIExpression()), !dbg !19085
  %_M_string_length.i.i.i.i = getelementptr inbounds i8, i8* %exception, i64 24, !dbg !19086
  %11 = bitcast i8* %_M_string_length.i.i.i.i to i64*, !dbg !19086
  store i64 0, i64* %11, align 8, !dbg !19087
  call void @llvm.dbg.value(metadata i8* %9, metadata !18594, metadata !DIExpression()), !dbg !19088
  store i8 0, i8* %9, align 1, !dbg !19090
  %errno_val.i = getelementptr inbounds i8, i8* %exception, i64 48, !dbg !19091
  %12 = bitcast i8* %errno_val.i to i32*, !dbg !19091
  store i32 0, i32* %12, align 8, !dbg !19091
  %file.i = getelementptr inbounds i8, i8* %exception, i64 56, !dbg !19092
  %13 = bitcast i8* %file.i to i8**, !dbg !19092
  store i8* getelementptr inbounds ([11 x i8], [11 x i8]* @.str.40, i64 0, i64 0), i8** %13, align 8, !dbg !19092
  %line.i = getelementptr inbounds i8, i8* %exception, i64 64, !dbg !19093
  %14 = bitcast i8* %line.i to i32*, !dbg !19093
  store i32 125, i32* %14, align 8, !dbg !19093
  call void @__cxa_throw(i8* %exception, i8* bitcast ({ i8*, i8* }* @_ZTIN4PMGD9ExceptionE to i8*), i8* bitcast (void (%"struct.PMGD::Exception"*)* @_ZN4PMGD9ExceptionD2Ev to i8*)) #16, !dbg !19060
  unreachable, !dbg !19060

if.end:                                           ; preds = %while.body5
  %inc = add nuw nsw i32 %attempts.114, 1, !dbg !19094
  call void @llvm.dbg.value(metadata i64* %cur_max_delay, metadata !19002, metadata !DIExpression(DW_OP_deref)), !dbg !19006
  call void @_ZN4PMGD6RWLock7backoffERm(%"class.PMGD::RWLock"* nonnull %this, i64* nonnull dereferenceable(8) %cur_max_delay), !dbg !19095
  call void @llvm.dbg.value(metadata i32 %inc, metadata !19003, metadata !DIExpression()), !dbg !19007
  %15 = load volatile i16, i16* %_rw_lock, align 2, !dbg !19031
  %16 = and i16 %15, 32767, !dbg !19033
  %tobool = icmp eq i16 %16, 0, !dbg !19031
  br i1 %tobool, label %while.end, label %while.body5, !dbg !19034, !llvm.loop !19096

while.end:                                        ; preds = %if.end, %while.cond2.preheader
  call void @llvm.lifetime.end.p0i8(i64 8, i8* nonnull %0) #14, !dbg !19098
  ret void, !dbg !19098

while.body15:                                     ; preds = %while.cond10.preheader, %if.end22
  %attempts.216 = phi i32 [ %inc16, %if.end22 ], [ %attempts.018, %while.cond10.preheader ]
  call void @llvm.dbg.value(metadata i32 %attempts.216, metadata !19003, metadata !DIExpression()), !dbg !19007
  %inc16 = add i32 %attempts.216, 1, !dbg !19099
  %cmp17 = icmp ugt i32 %inc16, 10, !dbg !19102
  br i1 %cmp17, label %if.then18, label %if.end22, !dbg !19103

if.then18:                                        ; preds = %while.body15
  %exception19 = call i8* @__cxa_allocate_exception(i64 72) #14, !dbg !19104
  call void @llvm.dbg.value(metadata i8* %exception19, metadata !18951, metadata !DIExpression()), !dbg !19106
  call void @llvm.dbg.value(metadata i32 14, metadata !18954, metadata !DIExpression()), !dbg !19108
  call void @llvm.dbg.value(metadata i8* getelementptr inbounds ([12 x i8], [12 x i8]* @.str.41, i64 0, i64 0), metadata !18955, metadata !DIExpression()), !dbg !19109
  call void @llvm.dbg.value(metadata i8* getelementptr inbounds ([11 x i8], [11 x i8]* @.str.40, i64 0, i64 0), metadata !18956, metadata !DIExpression()), !dbg !19110
  call void @llvm.dbg.value(metadata i32 135, metadata !18957, metadata !DIExpression()), !dbg !19111
  %num.i3 = bitcast i8* %exception19 to i32*, !dbg !19112
  store i32 14, i32* %num.i3, align 8, !dbg !19112
  %name.i4 = getelementptr inbounds i8, i8* %exception19, i64 8, !dbg !19113
  %17 = bitcast i8* %name.i4 to i8**, !dbg !19113
  store i8* getelementptr inbounds ([12 x i8], [12 x i8]* @.str.41, i64 0, i64 0), i8** %17, align 8, !dbg !19113
  %msg.i5 = getelementptr inbounds i8, i8* %exception19, i64 16, !dbg !19114
  call void @llvm.dbg.value(metadata i8* %msg.i5, metadata !18967, metadata !DIExpression()), !dbg !19115
  call void @llvm.dbg.value(metadata i8* %msg.i5, metadata !18476, metadata !DIExpression()), !dbg !19117
  %18 = getelementptr inbounds i8, i8* %exception19, i64 32, !dbg !19119
  call void @llvm.dbg.value(metadata i8* %msg.i5, metadata !18482, metadata !DIExpression()), !dbg !19120
  call void @llvm.dbg.value(metadata i8* %18, metadata !18485, metadata !DIExpression()), !dbg !19122
  call void @llvm.dbg.value(metadata %"class.std::allocator"* undef, metadata !18486, metadata !DIExpression()), !dbg !19123
  %19 = bitcast i8* %msg.i5 to i8**, !dbg !19124
  store i8* %18, i8** %19, align 8, !dbg !19124
  call void @llvm.dbg.value(metadata i8** %19, metadata !18575, metadata !DIExpression()), !dbg !19125
  call void @llvm.dbg.value(metadata i64 0, metadata !18578, metadata !DIExpression()), !dbg !19127
  call void @llvm.dbg.value(metadata i8** %19, metadata !18582, metadata !DIExpression()), !dbg !19128
  call void @llvm.dbg.value(metadata i64 0, metadata !18585, metadata !DIExpression()), !dbg !19130
  %_M_string_length.i.i.i.i6 = getelementptr inbounds i8, i8* %exception19, i64 24, !dbg !19131
  %20 = bitcast i8* %_M_string_length.i.i.i.i6 to i64*, !dbg !19131
  store i64 0, i64* %20, align 8, !dbg !19132
  call void @llvm.dbg.value(metadata i8* %18, metadata !18594, metadata !DIExpression()), !dbg !19133
  store i8 0, i8* %18, align 1, !dbg !19135
  %errno_val.i8 = getelementptr inbounds i8, i8* %exception19, i64 48, !dbg !19136
  %21 = bitcast i8* %errno_val.i8 to i32*, !dbg !19136
  store i32 0, i32* %21, align 8, !dbg !19136
  %file.i9 = getelementptr inbounds i8, i8* %exception19, i64 56, !dbg !19137
  %22 = bitcast i8* %file.i9 to i8**, !dbg !19137
  store i8* getelementptr inbounds ([11 x i8], [11 x i8]* @.str.40, i64 0, i64 0), i8** %22, align 8, !dbg !19137
  %line.i10 = getelementptr inbounds i8, i8* %exception19, i64 64, !dbg !19138
  %23 = bitcast i8* %line.i10 to i32*, !dbg !19138
  store i32 135, i32* %23, align 8, !dbg !19138
  call void @__cxa_throw(i8* %exception19, i8* bitcast ({ i8*, i8* }* @_ZTIN4PMGD9ExceptionE to i8*), i8* bitcast (void (%"struct.PMGD::Exception"*)* @_ZN4PMGD9ExceptionD2Ev to i8*)) #16, !dbg !19104
  unreachable, !dbg !19104

if.end22:                                         ; preds = %while.body15
  call void @llvm.dbg.value(metadata i64* %cur_max_delay, metadata !19002, metadata !DIExpression(DW_OP_deref)), !dbg !19006
  call void @_ZN4PMGD6RWLock7backoffERm(%"class.PMGD::RWLock"* nonnull %this, i64* nonnull dereferenceable(8) %cur_max_delay), !dbg !19139
  call void @llvm.dbg.value(metadata i32 %inc16, metadata !19003, metadata !DIExpression()), !dbg !19007
  %24 = load volatile i16, i16* %_rw_lock, align 2, !dbg !19026
  %tobool14 = icmp slt i16 %24, 0, !dbg !19026
  br i1 %tobool14, label %while.body15, label %while.cond.loopexit, !dbg !19027, !llvm.loop !19140
}

; Function Attrs: uwtable
define linkonce_odr void @_ZN4PMGD6RWLock18upgrade_write_lockEv(%"class.PMGD::RWLock"* %this) local_unnamed_addr #6 comdat align 2 personality i8* bitcast (i32 (...)* @__gxx_personality_v0 to i8*) !dbg !19142 {
entry:
  %cur_max_delay = alloca i64, align 8
  call void @llvm.dbg.value(metadata %"class.PMGD::RWLock"* %this, metadata !19144, metadata !DIExpression()), !dbg !19147
  %0 = bitcast i64* %cur_max_delay to i8*, !dbg !19148
  call void @llvm.lifetime.start.p0i8(i64 8, i8* nonnull %0) #14, !dbg !19148
  call void @llvm.dbg.value(metadata i64 100000, metadata !19145, metadata !DIExpression()), !dbg !19149
  store i64 100000, i64* %cur_max_delay, align 8, !dbg !19149
  call void @llvm.dbg.value(metadata i32 0, metadata !19146, metadata !DIExpression()), !dbg !19150
  %_rw_lock = getelementptr inbounds %"class.PMGD::RWLock", %"class.PMGD::RWLock"* %this, i64 0, i32 0, !dbg !19151
  call void @llvm.dbg.value(metadata i16* %_rw_lock, metadata !19011, metadata !DIExpression()) #14, !dbg !19154
  call void @llvm.dbg.value(metadata i32 15, metadata !19016, metadata !DIExpression()) #14, !dbg !19156
  call void @llvm.dbg.value(metadata i8 0, metadata !19017, metadata !DIExpression()) #14, !dbg !19157
  %1 = call i8 asm sideeffect "lock bts${1:z} $2, $1\0A; setc $0", "=q,=*m,Ir,*m,~{memory},~{cc},~{dirflag},~{fpsr},~{flags}"(i16* nonnull %_rw_lock, i16 15, i16* nonnull %_rw_lock) #14, !dbg !19158, !srcloc !19023
  call void @llvm.dbg.value(metadata i8 %1, metadata !19017, metadata !DIExpression()) #14, !dbg !19157
  %2 = and i8 %1, 1, !dbg !19159
  %tobool.i17 = icmp eq i8 %2, 0, !dbg !19159
  br i1 %tobool.i17, label %while.cond2.preheader, label %while.cond13.preheader, !dbg !19160

while.cond.loopexit:                              ; preds = %if.end24, %while.cond13.preheader
  %attempts.2.lcssa = phi i32 [ %attempts.018, %while.cond13.preheader ], [ %inc18, %if.end24 ], !dbg !19147
  call void @llvm.dbg.value(metadata i32 %attempts.2.lcssa, metadata !19146, metadata !DIExpression()), !dbg !19150
  call void @llvm.dbg.value(metadata i16* %_rw_lock, metadata !19011, metadata !DIExpression()) #14, !dbg !19154
  call void @llvm.dbg.value(metadata i32 15, metadata !19016, metadata !DIExpression()) #14, !dbg !19156
  call void @llvm.dbg.value(metadata i8 0, metadata !19017, metadata !DIExpression()) #14, !dbg !19157
  %3 = call i8 asm sideeffect "lock bts${1:z} $2, $1\0A; setc $0", "=q,=*m,Ir,*m,~{memory},~{cc},~{dirflag},~{fpsr},~{flags}"(i16* nonnull %_rw_lock, i16 15, i16* nonnull %_rw_lock) #14, !dbg !19158, !srcloc !19023
  call void @llvm.dbg.value(metadata i8 %3, metadata !19017, metadata !DIExpression()) #14, !dbg !19157
  %4 = and i8 %3, 1, !dbg !19159
  %tobool.i = icmp eq i8 %4, 0, !dbg !19159
  br i1 %tobool.i, label %while.cond2.preheader, label %while.cond13.preheader, !dbg !19160

while.cond13.preheader:                           ; preds = %entry, %while.cond.loopexit
  %attempts.018 = phi i32 [ %attempts.2.lcssa, %while.cond.loopexit ], [ 0, %entry ]
  call void @llvm.dbg.value(metadata i32 %attempts.018, metadata !19146, metadata !DIExpression()), !dbg !19150
  call void @llvm.dbg.value(metadata i32 %attempts.018, metadata !19146, metadata !DIExpression()), !dbg !19150
  %5 = load volatile i16, i16* %_rw_lock, align 2, !dbg !19161
  %tobool15 = icmp slt i16 %5, 0, !dbg !19161
  br i1 %tobool15, label %while.body17, label %while.cond.loopexit, !dbg !19162, !llvm.loop !19163

while.cond2.preheader:                            ; preds = %while.cond.loopexit, %entry
  call void @llvm.dbg.value(metadata i32 0, metadata !19146, metadata !DIExpression()), !dbg !19150
  %6 = load volatile i16, i16* %_rw_lock, align 2, !dbg !19166
  %7 = and i16 %6, 32766, !dbg !19168
  %cmp513 = icmp eq i16 %7, 0, !dbg !19169
  br i1 %cmp513, label %while.end, label %while.body6, !dbg !19170

while.body6:                                      ; preds = %while.cond2.preheader, %if.end
  %attempts.114 = phi i32 [ %inc, %if.end ], [ 0, %while.cond2.preheader ]
  call void @llvm.dbg.value(metadata i32 %attempts.114, metadata !19146, metadata !DIExpression()), !dbg !19150
  %cmp7 = icmp ugt i32 %attempts.114, 9, !dbg !19171
  br i1 %cmp7, label %if.then8, label %if.end, !dbg !19174

if.then8:                                         ; preds = %while.body6
  call void @llvm.dbg.value(metadata %"class.PMGD::RWLock"* %this, metadata !19039, metadata !DIExpression()), !dbg !19175
  call void @llvm.dbg.value(metadata i16* %_rw_lock, metadata !19042, metadata !DIExpression()), !dbg !19178
  call void @llvm.dbg.value(metadata i16 32767, metadata !19043, metadata !DIExpression()), !dbg !19179
  call void @llvm.dbg.value(metadata i16* %_rw_lock, metadata !19049, metadata !DIExpression()) #14, !dbg !19180
  call void @llvm.dbg.value(metadata i16 32767, metadata !19054, metadata !DIExpression()) #14, !dbg !19182
  call void asm sideeffect "lock and${0:z} $1, $0", "=*m,ri,*m,~{dirflag},~{fpsr},~{flags}"(i16* nonnull %_rw_lock, i16 32767, i16* nonnull %_rw_lock) #14, !dbg !19183, !srcloc !19059
  %exception = call i8* @__cxa_allocate_exception(i64 72) #14, !dbg !19184
  call void @llvm.dbg.value(metadata i8* %exception, metadata !18951, metadata !DIExpression()), !dbg !19185
  call void @llvm.dbg.value(metadata i32 14, metadata !18954, metadata !DIExpression()), !dbg !19187
  call void @llvm.dbg.value(metadata i8* getelementptr inbounds ([12 x i8], [12 x i8]* @.str.41, i64 0, i64 0), metadata !18955, metadata !DIExpression()), !dbg !19188
  call void @llvm.dbg.value(metadata i8* getelementptr inbounds ([11 x i8], [11 x i8]* @.str.40, i64 0, i64 0), metadata !18956, metadata !DIExpression()), !dbg !19189
  call void @llvm.dbg.value(metadata i32 159, metadata !18957, metadata !DIExpression()), !dbg !19190
  %num.i = bitcast i8* %exception to i32*, !dbg !19191
  store i32 14, i32* %num.i, align 8, !dbg !19191
  %name.i = getelementptr inbounds i8, i8* %exception, i64 8, !dbg !19192
  %8 = bitcast i8* %name.i to i8**, !dbg !19192
  store i8* getelementptr inbounds ([12 x i8], [12 x i8]* @.str.41, i64 0, i64 0), i8** %8, align 8, !dbg !19192
  %msg.i = getelementptr inbounds i8, i8* %exception, i64 16, !dbg !19193
  call void @llvm.dbg.value(metadata i8* %msg.i, metadata !18967, metadata !DIExpression()), !dbg !19194
  call void @llvm.dbg.value(metadata i8* %msg.i, metadata !18476, metadata !DIExpression()), !dbg !19196
  %9 = getelementptr inbounds i8, i8* %exception, i64 32, !dbg !19198
  call void @llvm.dbg.value(metadata i8* %msg.i, metadata !18482, metadata !DIExpression()), !dbg !19199
  call void @llvm.dbg.value(metadata i8* %9, metadata !18485, metadata !DIExpression()), !dbg !19201
  call void @llvm.dbg.value(metadata %"class.std::allocator"* undef, metadata !18486, metadata !DIExpression()), !dbg !19202
  %10 = bitcast i8* %msg.i to i8**, !dbg !19203
  store i8* %9, i8** %10, align 8, !dbg !19203
  call void @llvm.dbg.value(metadata i8** %10, metadata !18575, metadata !DIExpression()), !dbg !19204
  call void @llvm.dbg.value(metadata i64 0, metadata !18578, metadata !DIExpression()), !dbg !19206
  call void @llvm.dbg.value(metadata i8** %10, metadata !18582, metadata !DIExpression()), !dbg !19207
  call void @llvm.dbg.value(metadata i64 0, metadata !18585, metadata !DIExpression()), !dbg !19209
  %_M_string_length.i.i.i.i = getelementptr inbounds i8, i8* %exception, i64 24, !dbg !19210
  %11 = bitcast i8* %_M_string_length.i.i.i.i to i64*, !dbg !19210
  store i64 0, i64* %11, align 8, !dbg !19211
  call void @llvm.dbg.value(metadata i8* %9, metadata !18594, metadata !DIExpression()), !dbg !19212
  store i8 0, i8* %9, align 1, !dbg !19214
  %errno_val.i = getelementptr inbounds i8, i8* %exception, i64 48, !dbg !19215
  %12 = bitcast i8* %errno_val.i to i32*, !dbg !19215
  store i32 0, i32* %12, align 8, !dbg !19215
  %file.i = getelementptr inbounds i8, i8* %exception, i64 56, !dbg !19216
  %13 = bitcast i8* %file.i to i8**, !dbg !19216
  store i8* getelementptr inbounds ([11 x i8], [11 x i8]* @.str.40, i64 0, i64 0), i8** %13, align 8, !dbg !19216
  %line.i = getelementptr inbounds i8, i8* %exception, i64 64, !dbg !19217
  %14 = bitcast i8* %line.i to i32*, !dbg !19217
  store i32 159, i32* %14, align 8, !dbg !19217
  call void @__cxa_throw(i8* %exception, i8* bitcast ({ i8*, i8* }* @_ZTIN4PMGD9ExceptionE to i8*), i8* bitcast (void (%"struct.PMGD::Exception"*)* @_ZN4PMGD9ExceptionD2Ev to i8*)) #16, !dbg !19184
  unreachable, !dbg !19184

if.end:                                           ; preds = %while.body6
  %inc = add nuw nsw i32 %attempts.114, 1, !dbg !19218
  call void @llvm.dbg.value(metadata i64* %cur_max_delay, metadata !19145, metadata !DIExpression(DW_OP_deref)), !dbg !19149
  call void @_ZN4PMGD6RWLock7backoffERm(%"class.PMGD::RWLock"* nonnull %this, i64* nonnull dereferenceable(8) %cur_max_delay), !dbg !19219
  call void @llvm.dbg.value(metadata i32 %inc, metadata !19146, metadata !DIExpression()), !dbg !19150
  %15 = load volatile i16, i16* %_rw_lock, align 2, !dbg !19166
  %16 = and i16 %15, 32766, !dbg !19168
  %cmp5 = icmp eq i16 %16, 0, !dbg !19169
  br i1 %cmp5, label %while.end, label %while.body6, !dbg !19170, !llvm.loop !19220

while.end:                                        ; preds = %if.end, %while.cond2.preheader
  call void @llvm.dbg.value(metadata %"class.PMGD::RWLock"* %this, metadata !18903, metadata !DIExpression()), !dbg !19222
  call void @llvm.dbg.value(metadata i16* %_rw_lock, metadata !18906, metadata !DIExpression()), !dbg !19224
  call void @llvm.dbg.value(metadata i16 -1, metadata !18907, metadata !DIExpression()), !dbg !19225
  call void @llvm.dbg.value(metadata i16* %_rw_lock, metadata !18912, metadata !DIExpression()) #14, !dbg !19226
  call void @llvm.dbg.value(metadata i16 -1, metadata !18919, metadata !DIExpression()) #14, !dbg !19228
  call void @llvm.dbg.value(metadata i16 -1, metadata !18920, metadata !DIExpression()) #14, !dbg !19229
  %17 = call i16 asm sideeffect "lock xadd $1, $0", "=*m,=r,*m,1,~{dirflag},~{fpsr},~{flags}"(i16* nonnull %_rw_lock, i16* nonnull %_rw_lock, i16 -1) #14, !dbg !19230, !srcloc !18928
  call void @llvm.dbg.value(metadata i16 %17, metadata !18920, metadata !DIExpression()) #14, !dbg !19229
  call void @llvm.lifetime.end.p0i8(i64 8, i8* nonnull %0) #14, !dbg !19231
  ret void, !dbg !19231

while.body17:                                     ; preds = %while.cond13.preheader, %if.end24
  %attempts.216 = phi i32 [ %inc18, %if.end24 ], [ %attempts.018, %while.cond13.preheader ]
  call void @llvm.dbg.value(metadata i32 %attempts.216, metadata !19146, metadata !DIExpression()), !dbg !19150
  %cmp19 = icmp ugt i32 %attempts.216, 10, !dbg !19232
  br i1 %cmp19, label %if.then20, label %if.end24, !dbg !19235

if.then20:                                        ; preds = %while.body17
  %exception21 = call i8* @__cxa_allocate_exception(i64 72) #14, !dbg !19236
  call void @llvm.dbg.value(metadata i8* %exception21, metadata !18951, metadata !DIExpression()), !dbg !19238
  call void @llvm.dbg.value(metadata i32 14, metadata !18954, metadata !DIExpression()), !dbg !19240
  call void @llvm.dbg.value(metadata i8* getelementptr inbounds ([12 x i8], [12 x i8]* @.str.41, i64 0, i64 0), metadata !18955, metadata !DIExpression()), !dbg !19241
  call void @llvm.dbg.value(metadata i8* getelementptr inbounds ([11 x i8], [11 x i8]* @.str.40, i64 0, i64 0), metadata !18956, metadata !DIExpression()), !dbg !19242
  call void @llvm.dbg.value(metadata i32 173, metadata !18957, metadata !DIExpression()), !dbg !19243
  %num.i3 = bitcast i8* %exception21 to i32*, !dbg !19244
  store i32 14, i32* %num.i3, align 8, !dbg !19244
  %name.i4 = getelementptr inbounds i8, i8* %exception21, i64 8, !dbg !19245
  %18 = bitcast i8* %name.i4 to i8**, !dbg !19245
  store i8* getelementptr inbounds ([12 x i8], [12 x i8]* @.str.41, i64 0, i64 0), i8** %18, align 8, !dbg !19245
  %msg.i5 = getelementptr inbounds i8, i8* %exception21, i64 16, !dbg !19246
  call void @llvm.dbg.value(metadata i8* %msg.i5, metadata !18967, metadata !DIExpression()), !dbg !19247
  call void @llvm.dbg.value(metadata i8* %msg.i5, metadata !18476, metadata !DIExpression()), !dbg !19249
  %19 = getelementptr inbounds i8, i8* %exception21, i64 32, !dbg !19251
  call void @llvm.dbg.value(metadata i8* %msg.i5, metadata !18482, metadata !DIExpression()), !dbg !19252
  call void @llvm.dbg.value(metadata i8* %19, metadata !18485, metadata !DIExpression()), !dbg !19254
  call void @llvm.dbg.value(metadata %"class.std::allocator"* undef, metadata !18486, metadata !DIExpression()), !dbg !19255
  %20 = bitcast i8* %msg.i5 to i8**, !dbg !19256
  store i8* %19, i8** %20, align 8, !dbg !19256
  call void @llvm.dbg.value(metadata i8** %20, metadata !18575, metadata !DIExpression()), !dbg !19257
  call void @llvm.dbg.value(metadata i64 0, metadata !18578, metadata !DIExpression()), !dbg !19259
  call void @llvm.dbg.value(metadata i8** %20, metadata !18582, metadata !DIExpression()), !dbg !19260
  call void @llvm.dbg.value(metadata i64 0, metadata !18585, metadata !DIExpression()), !dbg !19262
  %_M_string_length.i.i.i.i6 = getelementptr inbounds i8, i8* %exception21, i64 24, !dbg !19263
  %21 = bitcast i8* %_M_string_length.i.i.i.i6 to i64*, !dbg !19263
  store i64 0, i64* %21, align 8, !dbg !19264
  call void @llvm.dbg.value(metadata i8* %19, metadata !18594, metadata !DIExpression()), !dbg !19265
  store i8 0, i8* %19, align 1, !dbg !19267
  %errno_val.i8 = getelementptr inbounds i8, i8* %exception21, i64 48, !dbg !19268
  %22 = bitcast i8* %errno_val.i8 to i32*, !dbg !19268
  store i32 0, i32* %22, align 8, !dbg !19268
  %file.i9 = getelementptr inbounds i8, i8* %exception21, i64 56, !dbg !19269
  %23 = bitcast i8* %file.i9 to i8**, !dbg !19269
  store i8* getelementptr inbounds ([11 x i8], [11 x i8]* @.str.40, i64 0, i64 0), i8** %23, align 8, !dbg !19269
  %line.i10 = getelementptr inbounds i8, i8* %exception21, i64 64, !dbg !19270
  %24 = bitcast i8* %line.i10 to i32*, !dbg !19270
  store i32 173, i32* %24, align 8, !dbg !19270
  call void @__cxa_throw(i8* %exception21, i8* bitcast ({ i8*, i8* }* @_ZTIN4PMGD9ExceptionE to i8*), i8* bitcast (void (%"struct.PMGD::Exception"*)* @_ZN4PMGD9ExceptionD2Ev to i8*)) #16, !dbg !19236
  unreachable, !dbg !19236

if.end24:                                         ; preds = %while.body17
  %inc18 = add i32 %attempts.216, 1, !dbg !19271
  call void @llvm.dbg.value(metadata i64* %cur_max_delay, metadata !19145, metadata !DIExpression(DW_OP_deref)), !dbg !19149
  call void @_ZN4PMGD6RWLock7backoffERm(%"class.PMGD::RWLock"* nonnull %this, i64* nonnull dereferenceable(8) %cur_max_delay), !dbg !19272
  call void @llvm.dbg.value(metadata i32 %inc18, metadata !19146, metadata !DIExpression()), !dbg !19150
  %25 = load volatile i16, i16* %_rw_lock, align 2, !dbg !19161
  %tobool = icmp slt i16 %25, 0, !dbg !19161
  br i1 %tobool, label %while.body17, label %while.cond.loopexit, !dbg !19162, !llvm.loop !19273
}

; Function Attrs: uwtable
define i32 @_ZN4PMGD15TransactionImpl5Locks12acquire_lockEPKvb(%"struct.PMGD::TransactionImpl::Locks"* %this, i8* %addr, i1 zeroext %write) local_unnamed_addr #6 align 2 personality i32 (...)* @__gxx_personality_v0 !dbg !19275 {
entry:
  call void @llvm.dbg.value(metadata %"struct.PMGD::TransactionImpl::Locks"* %this, metadata !19277, metadata !DIExpression()), !dbg !19284
  call void @llvm.dbg.value(metadata i8* %addr, metadata !19278, metadata !DIExpression()), !dbg !19285
  %mainlock = getelementptr inbounds %"struct.PMGD::TransactionImpl::Locks", %"struct.PMGD::TransactionImpl::Locks"* %this, i64 0, i32 1, !dbg !19286
  %0 = load %"class.PMGD::StripedLock"*, %"class.PMGD::StripedLock"** %mainlock, align 8, !dbg !19286
  call void @llvm.dbg.value(metadata %"class.PMGD::StripedLock"* %0, metadata !19287, metadata !DIExpression()), !dbg !19292
  call void @llvm.dbg.value(metadata i8* %addr, metadata !19290, metadata !DIExpression()), !dbg !19294
  %1 = ptrtoint i8* %addr to i64, !dbg !19295
  %_shift.i = getelementptr inbounds %"class.PMGD::StripedLock", %"class.PMGD::StripedLock"* %0, i64 0, i32 2, !dbg !19296
  %2 = load i64, i64* %_shift.i, align 8, !dbg !19296
  %shr.i = lshr i64 %1, %2, !dbg !19297
  %_maskbits.i = getelementptr inbounds %"class.PMGD::StripedLock", %"class.PMGD::StripedLock"* %0, i64 0, i32 1, !dbg !19298
  %3 = load i64, i64* %_maskbits.i, align 8, !dbg !19298
  %and.i = and i64 %shr.i, %3, !dbg !19299
  call void @llvm.dbg.value(metadata i64 %and.i, metadata !19280, metadata !DIExpression()), !dbg !19300
  call void @llvm.dbg.value(metadata %"struct.PMGD::TransactionImpl::Locks"* %this, metadata !19301, metadata !DIExpression()), !dbg !19365
  call void @llvm.dbg.value(metadata %"struct.std::pair.239"* undef, metadata !19363, metadata !DIExpression()), !dbg !19367
  call void @llvm.dbg.value(metadata %"struct.PMGD::TransactionImpl::Locks"* %this, metadata !19368, metadata !DIExpression()), !dbg !19381
  call void @llvm.dbg.value(metadata %"struct.std::pair.239"* undef, metadata !19376, metadata !DIExpression()), !dbg !19383
  %4 = getelementptr inbounds %"struct.PMGD::TransactionImpl::Locks", %"struct.PMGD::TransactionImpl::Locks"* %this, i64 0, i32 0, i32 0, !dbg !19384
  call void @llvm.dbg.value(metadata %"class.std::_Hashtable"* %4, metadata !19387, metadata !DIExpression()), !dbg !19390
  call void @llvm.dbg.value(metadata %"class.std::_Hashtable"* %4, metadata !19377, metadata !DIExpression()), !dbg !19391
  call void @llvm.dbg.value(metadata %"class.std::_Hashtable"* %4, metadata !19392, metadata !DIExpression()), !dbg !19411
  call void @llvm.dbg.value(metadata %"struct.std::pair.239"* undef, metadata !19403, metadata !DIExpression()), !dbg !19413
  call void @llvm.dbg.value(metadata %"class.std::_Hashtable"* %4, metadata !19414, metadata !DIExpression()), !dbg !19437
  call void @llvm.dbg.value(metadata %"struct.std::pair.239"* undef, metadata !19420, metadata !DIExpression()), !dbg !19439
  call void @llvm.dbg.value(metadata %"class.std::_Hashtable"* %4, metadata !19440, metadata !DIExpression()), !dbg !19469
  call void @llvm.dbg.value(metadata i64 1, metadata !19468, metadata !DIExpression()), !dbg !19471
  call void @llvm.dbg.value(metadata %"class.std::_Hashtable"* %4, metadata !19472, metadata !DIExpression()), !dbg !19478
  call void @llvm.dbg.value(metadata i64 1, metadata !19475, metadata !DIExpression()), !dbg !19480
  call void @llvm.dbg.value(metadata i8* null, metadata !19476, metadata !DIExpression()), !dbg !19481
  %call2.i.i.i.i.i.i = tail call i8* @_Znwm(i64 24), !dbg !19482
  %5 = bitcast i8* %call2.i.i.i.i.i.i to %"struct.std::__detail::_Hash_node"*, !dbg !19483
  call void @llvm.dbg.value(metadata %"struct.std::__detail::_Hash_node"* %5, metadata !19421, metadata !DIExpression()), !dbg !19484
  call void @llvm.dbg.value(metadata %"struct.std::__detail::_Hash_node"* %5, metadata !19422, metadata !DIExpression()), !dbg !19485
  call void @llvm.dbg.value(metadata %"class.std::allocator.253"* undef, metadata !19423, metadata !DIExpression(DW_OP_deref)), !dbg !19486
  call void @llvm.dbg.value(metadata %"struct.std::__detail::_Hash_node"* %5, metadata !19487, metadata !DIExpression()), !dbg !19494
  call void @llvm.dbg.value(metadata %"struct.std::__detail::_Hash_node"* %5, metadata !19496, metadata !DIExpression()), !dbg !19503
  call void @llvm.dbg.value(metadata %"struct.std::__detail::_Hash_node"* %5, metadata !19505, metadata !DIExpression()), !dbg !19508
  %_M_nxt.i.i.i.i.i.i.i = bitcast i8* %call2.i.i.i.i.i.i to %"struct.std::__detail::_Hash_node_base"**, !dbg !19510
  store %"struct.std::__detail::_Hash_node_base"* null, %"struct.std::__detail::_Hash_node_base"** %_M_nxt.i.i.i.i.i.i.i, align 8, !dbg !19510
  call void @llvm.dbg.value(metadata i8* %call2.i.i.i.i.i.i, metadata !19511, metadata !DIExpression()), !dbg !19514
  %_M_storage.i.i.i.i.i = getelementptr inbounds i8, i8* %call2.i.i.i.i.i.i, i64 8, !dbg !19516
  call void @llvm.dbg.value(metadata %"class.std::allocator.253"* undef, metadata !19517, metadata !DIExpression()), !dbg !19550
  call void @llvm.dbg.value(metadata i8* %_M_storage.i.i.i.i.i, metadata !19548, metadata !DIExpression()), !dbg !19552
  call void @llvm.dbg.value(metadata %"struct.std::pair.239"* undef, metadata !19549, metadata !DIExpression()), !dbg !19553
  call void @llvm.dbg.value(metadata %"class.std::allocator.253"* undef, metadata !19554, metadata !DIExpression()), !dbg !19563
  call void @llvm.dbg.value(metadata i8* %_M_storage.i.i.i.i.i, metadata !19560, metadata !DIExpression()), !dbg !19565
  call void @llvm.dbg.value(metadata %"struct.std::pair.239"* undef, metadata !19561, metadata !DIExpression()), !dbg !19566
  call void @llvm.dbg.value(metadata i8* %_M_storage.i.i.i.i.i, metadata !19567, metadata !DIExpression()), !dbg !19575
  call void @llvm.dbg.value(metadata %"struct.std::pair.239"* undef, metadata !19574, metadata !DIExpression()), !dbg !19577
  %first.i.i.i.i.i.i.i = bitcast i8* %_M_storage.i.i.i.i.i to i64*, !dbg !19578
  store i64 %and.i, i64* %first.i.i.i.i.i.i.i, align 8, !dbg !19578
  %6 = getelementptr inbounds i8, i8* %call2.i.i.i.i.i.i, i64 16, !dbg !19579
  store i8 0, i8* %6, align 8, !dbg !19579
  call void @llvm.dbg.value(metadata %"class.std::allocator.253"* undef, metadata !19423, metadata !DIExpression(DW_OP_deref)), !dbg !19486
  call void @llvm.dbg.value(metadata %"struct.std::__detail::_Hash_node"* %5, metadata !19404, metadata !DIExpression()), !dbg !19580
  call void @llvm.dbg.value(metadata i8* %call2.i.i.i.i.i.i, metadata !19581, metadata !DIExpression()), !dbg !19584
  call void @llvm.dbg.value(metadata i8* %call2.i.i.i.i.i.i, metadata !19511, metadata !DIExpression()), !dbg !19586
  call void @llvm.dbg.value(metadata %"class.std::_Hashtable"* %4, metadata !19588, metadata !DIExpression()), !dbg !19604
  call void @llvm.dbg.value(metadata i8* %_M_storage.i.i.i.i.i, metadata !19602, metadata !DIExpression()), !dbg !19606
  call void @llvm.dbg.value(metadata i8* %_M_storage.i.i.i.i.i, metadata !19607, metadata !DIExpression()), !dbg !19616
  call void @llvm.dbg.value(metadata i8* %_M_storage.i.i.i.i.i, metadata !19618, metadata !DIExpression()), !dbg !19627
  call void @llvm.dbg.value(metadata i64* %first.i.i.i.i.i.i.i, metadata !19405, metadata !DIExpression()), !dbg !19629
  call void @llvm.dbg.value(metadata i64 %and.i, metadata !19406, metadata !DIExpression()), !dbg !19630
  call void @llvm.dbg.value(metadata %"class.std::_Hashtable"* %4, metadata !19631, metadata !DIExpression()), !dbg !19637
  call void @llvm.dbg.value(metadata i64* %first.i.i.i.i.i.i.i, metadata !19634, metadata !DIExpression()), !dbg !19639
  call void @llvm.dbg.value(metadata i64 %and.i, metadata !19635, metadata !DIExpression()), !dbg !19640
  %_M_bucket_count.i.i.i.i = getelementptr inbounds %"struct.PMGD::TransactionImpl::Locks", %"struct.PMGD::TransactionImpl::Locks"* %this, i64 0, i32 0, i32 0, i32 1, !dbg !19641
  %7 = load i64, i64* %_M_bucket_count.i.i.i.i, align 8, !dbg !19641
  call void @llvm.dbg.value(metadata %"class.std::_Hashtable"* %4, metadata !19642, metadata !DIExpression()), !dbg !19649
  call void @llvm.dbg.value(metadata i64* %first.i.i.i.i.i.i.i, metadata !19645, metadata !DIExpression()), !dbg !19651
  call void @llvm.dbg.value(metadata i64 %and.i, metadata !19646, metadata !DIExpression()), !dbg !19652
  call void @llvm.dbg.value(metadata i64 %7, metadata !19647, metadata !DIExpression()), !dbg !19653
  call void @llvm.dbg.value(metadata %"class.std::_Hashtable"* %4, metadata !19654, metadata !DIExpression()), !dbg !19660
  call void @llvm.dbg.value(metadata i64 %and.i, metadata !19657, metadata !DIExpression()), !dbg !19662
  call void @llvm.dbg.value(metadata i64 %7, metadata !19658, metadata !DIExpression()), !dbg !19663
  %rem.i.i.i.i.i.i = urem i64 %and.i, %7, !dbg !19664
  call void @llvm.dbg.value(metadata i64 %rem.i.i.i.i.i.i, metadata !19407, metadata !DIExpression()), !dbg !19665
  call void @llvm.dbg.value(metadata %"class.std::_Hashtable"* %4, metadata !19666, metadata !DIExpression()), !dbg !19673
  call void @llvm.dbg.value(metadata i64 %rem.i.i.i.i.i.i, metadata !19669, metadata !DIExpression()), !dbg !19675
  call void @llvm.dbg.value(metadata i64* %first.i.i.i.i.i.i.i, metadata !19670, metadata !DIExpression()), !dbg !19676
  call void @llvm.dbg.value(metadata i64 %and.i, metadata !19671, metadata !DIExpression()), !dbg !19677
  call void @llvm.dbg.value(metadata %"class.std::_Hashtable"* %4, metadata !19678, metadata !DIExpression()), !dbg !19687
  call void @llvm.dbg.value(metadata i64 %rem.i.i.i.i.i.i, metadata !19681, metadata !DIExpression()), !dbg !19689
  call void @llvm.dbg.value(metadata i64* %first.i.i.i.i.i.i.i, metadata !19682, metadata !DIExpression()), !dbg !19690
  call void @llvm.dbg.value(metadata i64 %and.i, metadata !19683, metadata !DIExpression()), !dbg !19691
  %_M_buckets.i.i.i.i.i = getelementptr inbounds %"struct.PMGD::TransactionImpl::Locks", %"struct.PMGD::TransactionImpl::Locks"* %this, i64 0, i32 0, i32 0, i32 0, !dbg !19692
  %8 = load %"struct.std::__detail::_Hash_node_base"**, %"struct.std::__detail::_Hash_node_base"*** %_M_buckets.i.i.i.i.i, align 8, !dbg !19692
  %arrayidx.i.i.i.i.i = getelementptr inbounds %"struct.std::__detail::_Hash_node_base"*, %"struct.std::__detail::_Hash_node_base"** %8, i64 %rem.i.i.i.i.i.i, !dbg !19692
  %9 = load %"struct.std::__detail::_Hash_node_base"*, %"struct.std::__detail::_Hash_node_base"** %arrayidx.i.i.i.i.i, align 8, !dbg !19692
  call void @llvm.dbg.value(metadata %"struct.std::__detail::_Hash_node_base"* %9, metadata !19684, metadata !DIExpression()), !dbg !19693
  %tobool.i.i.i.i.i = icmp eq %"struct.std::__detail::_Hash_node_base"* %9, null, !dbg !19694
  br i1 %tobool.i.i.i.i.i, label %if.else, label %if.end.i.i.i.i.i, !dbg !19696

if.end.i.i.i.i.i:                                 ; preds = %entry
  %10 = bitcast %"struct.std::__detail::_Hash_node_base"* %9 to %"struct.std::__detail::_Hash_node"**, !dbg !19697
  %11 = load %"struct.std::__detail::_Hash_node"*, %"struct.std::__detail::_Hash_node"** %10, align 8, !dbg !19697
  call void @llvm.dbg.value(metadata %"struct.std::__detail::_Hash_node"* %11, metadata !19685, metadata !DIExpression()), !dbg !19698
  call void @llvm.dbg.value(metadata %"struct.std::__detail::_Hash_node_base"* %9, metadata !19684, metadata !DIExpression()), !dbg !19693
  call void @llvm.dbg.value(metadata %"class.std::_Hashtable"* %4, metadata !19699, metadata !DIExpression()), !dbg !19706
  call void @llvm.dbg.value(metadata i64* %first.i.i.i.i.i.i.i, metadata !19702, metadata !DIExpression()), !dbg !19711
  call void @llvm.dbg.value(metadata i64 %and.i, metadata !19703, metadata !DIExpression()), !dbg !19712
  call void @llvm.dbg.value(metadata %"struct.std::__detail::_Hash_node"* %11, metadata !19704, metadata !DIExpression()), !dbg !19713
  call void @llvm.dbg.value(metadata %"class.std::_Hashtable"* %4, metadata !19714, metadata !DIExpression()), !dbg !19728
  call void @llvm.dbg.value(metadata i64* %first.i.i.i.i.i.i.i, metadata !19725, metadata !DIExpression()), !dbg !19730
  call void @llvm.dbg.value(metadata i64 %and.i, metadata !19726, metadata !DIExpression()), !dbg !19731
  call void @llvm.dbg.value(metadata %"struct.std::__detail::_Hash_node"* %11, metadata !19727, metadata !DIExpression()), !dbg !19732
  call void @llvm.dbg.value(metadata %"struct.std::__detail::_Hash_node"* %11, metadata !19581, metadata !DIExpression()), !dbg !19733
  call void @llvm.dbg.value(metadata %"struct.std::__detail::_Hash_node"* %11, metadata !19511, metadata !DIExpression()), !dbg !19735
  %_M_storage.i.i.i.i12.i.i.i.i.i = getelementptr inbounds %"struct.std::__detail::_Hash_node", %"struct.std::__detail::_Hash_node"* %11, i64 0, i32 0, i32 1, !dbg !19737
  call void @llvm.dbg.value(metadata %"struct.__gnu_cxx::__aligned_buffer"* %_M_storage.i.i.i.i12.i.i.i.i.i, metadata !19602, metadata !DIExpression()), !dbg !19738
  call void @llvm.dbg.value(metadata %"struct.__gnu_cxx::__aligned_buffer"* %_M_storage.i.i.i.i12.i.i.i.i.i, metadata !19607, metadata !DIExpression()), !dbg !19740
  call void @llvm.dbg.value(metadata %"struct.__gnu_cxx::__aligned_buffer"* %_M_storage.i.i.i.i12.i.i.i.i.i, metadata !19618, metadata !DIExpression()), !dbg !19742
  %first.i.i.i.i.i13.i.i.i.i.i = bitcast %"struct.__gnu_cxx::__aligned_buffer"* %_M_storage.i.i.i.i12.i.i.i.i.i to i64*, !dbg !19744
  call void @llvm.dbg.value(metadata %"class.std::_Hashtable"* %4, metadata !19745, metadata !DIExpression()), !dbg !19751
  call void @llvm.dbg.value(metadata i64* %first.i.i.i.i.i.i.i, metadata !19748, metadata !DIExpression()), !dbg !19753
  call void @llvm.dbg.value(metadata i64* %first.i.i.i.i.i13.i.i.i.i.i, metadata !19749, metadata !DIExpression()), !dbg !19754
  %12 = load i64, i64* %first.i.i.i.i.i13.i.i.i.i.i, align 8, !dbg !19755
  %cmp.i.i.i14.i.i.i.i.i = icmp eq i64 %and.i, %12, !dbg !19756
  br i1 %cmp.i.i.i14.i.i.i.i.i, label %_ZNKSt10_HashtableImSt4pairIKmhESaIS2_ENSt8__detail10_Select1stESt8equal_toImESt4hashImENS4_18_Mod_range_hashingENS4_20_Default_ranged_hashENS4_20_Prime_rehash_policyENS4_17_Hashtable_traitsILb0ELb0ELb1EEEE12_M_find_nodeEmRS1_m.exit.i.i.i, label %if.end3.i.i.i.i.i, !dbg !19757

for.cond.i.i.i.i.i:                               ; preds = %lor.lhs.false.i.i.i.i.i
  call void @llvm.dbg.value(metadata %"struct.std::__detail::_Hash_node"* %14, metadata !19685, metadata !DIExpression()), !dbg !19698
  call void @llvm.dbg.value(metadata %"class.std::_Hashtable"* %4, metadata !19699, metadata !DIExpression()), !dbg !19706
  call void @llvm.dbg.value(metadata i64* %first.i.i.i.i.i.i.i, metadata !19702, metadata !DIExpression()), !dbg !19711
  call void @llvm.dbg.value(metadata i64 %and.i, metadata !19703, metadata !DIExpression()), !dbg !19712
  call void @llvm.dbg.value(metadata %"struct.std::__detail::_Hash_node"* %14, metadata !19704, metadata !DIExpression()), !dbg !19713
  call void @llvm.dbg.value(metadata %"class.std::_Hashtable"* %4, metadata !19714, metadata !DIExpression()), !dbg !19728
  call void @llvm.dbg.value(metadata i64* %first.i.i.i.i.i.i.i, metadata !19725, metadata !DIExpression()), !dbg !19730
  call void @llvm.dbg.value(metadata i64 %and.i, metadata !19726, metadata !DIExpression()), !dbg !19731
  call void @llvm.dbg.value(metadata %"struct.std::__detail::_Hash_node"* %14, metadata !19727, metadata !DIExpression()), !dbg !19732
  call void @llvm.dbg.value(metadata %"struct.std::__detail::_Hash_node"* %14, metadata !19581, metadata !DIExpression()), !dbg !19733
  call void @llvm.dbg.value(metadata %"struct.std::__detail::_Hash_node"* %14, metadata !19511, metadata !DIExpression()), !dbg !19735
  call void @llvm.dbg.value(metadata i64* %first.i.i.i.i.i11.i.i.i.i.i, metadata !19602, metadata !DIExpression()), !dbg !19738
  call void @llvm.dbg.value(metadata i64* %first.i.i.i.i.i11.i.i.i.i.i, metadata !19607, metadata !DIExpression()), !dbg !19740
  call void @llvm.dbg.value(metadata i64* %first.i.i.i.i.i11.i.i.i.i.i, metadata !19618, metadata !DIExpression()), !dbg !19742
  call void @llvm.dbg.value(metadata %"class.std::_Hashtable"* %4, metadata !19745, metadata !DIExpression()), !dbg !19751
  call void @llvm.dbg.value(metadata i64* %first.i.i.i.i.i.i.i, metadata !19748, metadata !DIExpression()), !dbg !19753
  call void @llvm.dbg.value(metadata i64* %first.i.i.i.i.i11.i.i.i.i.i, metadata !19749, metadata !DIExpression()), !dbg !19754
  %cmp.i.i.i.i.i.i.i.i = icmp eq i64 %and.i, %15, !dbg !19756
  br i1 %cmp.i.i.i.i.i.i.i.i, label %_ZNKSt10_HashtableImSt4pairIKmhESaIS2_ENSt8__detail10_Select1stESt8equal_toImESt4hashImENS4_18_Mod_range_hashingENS4_20_Default_ranged_hashENS4_20_Prime_rehash_policyENS4_17_Hashtable_traitsILb0ELb0ELb1EEEE19_M_find_before_nodeEmRS1_m.exit.i.i.i.i, label %if.end3.i.i.i.i.i, !dbg !19757, !llvm.loop !19758

if.end3.i.i.i.i.i:                                ; preds = %if.end.i.i.i.i.i, %for.cond.i.i.i.i.i
  %__p.015.i.i.i.i.i = phi %"struct.std::__detail::_Hash_node"* [ %14, %for.cond.i.i.i.i.i ], [ %11, %if.end.i.i.i.i.i ]
  call void @llvm.dbg.value(metadata %"struct.std::__detail::_Hash_node"* %__p.015.i.i.i.i.i, metadata !19685, metadata !DIExpression()), !dbg !19698
  %_M_nxt4.i.i.i.i.i = getelementptr inbounds %"struct.std::__detail::_Hash_node", %"struct.std::__detail::_Hash_node"* %__p.015.i.i.i.i.i, i64 0, i32 0, i32 0, i32 0, !dbg !19761
  %13 = load %"struct.std::__detail::_Hash_node_base"*, %"struct.std::__detail::_Hash_node_base"** %_M_nxt4.i.i.i.i.i, align 8, !dbg !19761
  %tobool5.i.i.i.i.i = icmp eq %"struct.std::__detail::_Hash_node_base"* %13, null, !dbg !19763
  %14 = bitcast %"struct.std::__detail::_Hash_node_base"* %13 to %"struct.std::__detail::_Hash_node"*, !dbg !19764
  br i1 %tobool5.i.i.i.i.i, label %if.else, label %lor.lhs.false.i.i.i.i.i, !dbg !19764

lor.lhs.false.i.i.i.i.i:                          ; preds = %if.end3.i.i.i.i.i
  call void @llvm.dbg.value(metadata %"class.std::_Hashtable"* %4, metadata !19765, metadata !DIExpression()), !dbg !19769
  call void @llvm.dbg.value(metadata %"struct.std::__detail::_Hash_node"* %14, metadata !19768, metadata !DIExpression()), !dbg !19771
  call void @llvm.dbg.value(metadata %"class.std::_Hashtable"* %4, metadata !19772, metadata !DIExpression()), !dbg !19777
  call void @llvm.dbg.value(metadata %"struct.std::__detail::_Hash_node"* %14, metadata !19775, metadata !DIExpression()), !dbg !19779
  call void @llvm.dbg.value(metadata i64 %7, metadata !19776, metadata !DIExpression()), !dbg !19780
  call void @llvm.dbg.value(metadata %"struct.std::__detail::_Hash_node"* %14, metadata !19781, metadata !DIExpression()), !dbg !19785
  call void @llvm.dbg.value(metadata %"struct.std::__detail::_Hash_node"* %14, metadata !19787, metadata !DIExpression()), !dbg !19790
  %_M_storage.i.i.i.i10.i.i.i.i.i = getelementptr inbounds %"struct.std::__detail::_Hash_node_base", %"struct.std::__detail::_Hash_node_base"* %13, i64 1, !dbg !19792
  %first.i.i.i.i.i11.i.i.i.i.i = bitcast %"struct.std::__detail::_Hash_node_base"* %_M_storage.i.i.i.i10.i.i.i.i.i to i64*, !dbg !19793
  call void @llvm.dbg.value(metadata i64* %first.i.i.i.i.i11.i.i.i.i.i, metadata !19817, metadata !DIExpression()), !dbg !19819
  call void @llvm.dbg.value(metadata i64* %first.i.i.i.i.i11.i.i.i.i.i, metadata !19807, metadata !DIExpression()), !dbg !19820
  call void @llvm.dbg.value(metadata i64* %first.i.i.i.i.i11.i.i.i.i.i, metadata !19799, metadata !DIExpression()), !dbg !19821
  %15 = load i64, i64* %first.i.i.i.i.i11.i.i.i.i.i, align 8, !dbg !19822
  call void @llvm.dbg.value(metadata %"class.std::_Hashtable"* %4, metadata !19654, metadata !DIExpression()), !dbg !19823
  call void @llvm.dbg.value(metadata i64 %15, metadata !19657, metadata !DIExpression()), !dbg !19825
  call void @llvm.dbg.value(metadata i64 %7, metadata !19658, metadata !DIExpression()), !dbg !19826
  %rem.i.i.i.i.i.i.i.i = urem i64 %15, %7, !dbg !19827
  %cmp.i.i.i.i.i = icmp eq i64 %rem.i.i.i.i.i.i.i.i, %rem.i.i.i.i.i.i, !dbg !19828
  br i1 %cmp.i.i.i.i.i, label %for.cond.i.i.i.i.i, label %if.else, !dbg !19829, !llvm.loop !19758

_ZNKSt10_HashtableImSt4pairIKmhESaIS2_ENSt8__detail10_Select1stESt8equal_toImESt4hashImENS4_18_Mod_range_hashingENS4_20_Default_ranged_hashENS4_20_Prime_rehash_policyENS4_17_Hashtable_traitsILb0ELb0ELb1EEEE19_M_find_before_nodeEmRS1_m.exit.i.i.i.i: ; preds = %for.cond.i.i.i.i.i
  call void @llvm.dbg.value(metadata %"struct.std::__detail::_Hash_node"* %__p.015.i.i.i.i.i, metadata !19685, metadata !DIExpression()), !dbg !19698
  call void @llvm.dbg.value(metadata %"struct.std::__detail::_Hash_node"* %__p.015.i.i.i.i.i, metadata !19685, metadata !DIExpression()), !dbg !19698
  call void @llvm.dbg.value(metadata %"struct.std::__detail::_Hash_node"* %__p.015.i.i.i.i.i, metadata !19685, metadata !DIExpression()), !dbg !19698
  %16 = bitcast %"struct.std::__detail::_Hash_node_base"* %13 to %"struct.std::__detail::_Hash_node"*, !dbg !19764
  call void @llvm.dbg.value(metadata %"struct.std::__detail::_Hash_node"* %__p.015.i.i.i.i.i, metadata !19685, metadata !DIExpression()), !dbg !19698
  call void @llvm.dbg.value(metadata %"struct.std::__detail::_Hash_node"* %__p.015.i.i.i.i.i, metadata !19685, metadata !DIExpression()), !dbg !19698
  call void @llvm.dbg.value(metadata %"struct.std::__detail::_Hash_node"* %__p.015.i.i.i.i.i, metadata !19685, metadata !DIExpression()), !dbg !19698
  call void @llvm.dbg.value(metadata %"struct.std::__detail::_Hash_node"* %__p.015.i.i.i.i.i, metadata !19685, metadata !DIExpression()), !dbg !19698
  call void @llvm.dbg.value(metadata %"struct.std::__detail::_Hash_node"* %__p.015.i.i.i.i.i, metadata !19685, metadata !DIExpression()), !dbg !19698
  call void @llvm.dbg.value(metadata %"struct.std::__detail::_Hash_node"* %__p.015.i.i.i.i.i, metadata !19685, metadata !DIExpression()), !dbg !19698
  call void @llvm.dbg.value(metadata %"struct.std::__detail::_Hash_node"* %__p.015.i.i.i.i.i, metadata !19685, metadata !DIExpression()), !dbg !19698
  call void @llvm.dbg.value(metadata %"struct.std::__detail::_Hash_node"* %__p.015.i.i.i.i.i, metadata !19685, metadata !DIExpression()), !dbg !19698
  call void @llvm.dbg.value(metadata %"struct.std::__detail::_Hash_node"* %__p.015.i.i.i.i.i, metadata !19685, metadata !DIExpression()), !dbg !19698
  call void @llvm.dbg.value(metadata %"struct.std::__detail::_Hash_node"* %__p.015.i.i.i.i.i, metadata !19685, metadata !DIExpression()), !dbg !19698
  call void @llvm.dbg.value(metadata %"struct.std::__detail::_Hash_node"* %__p.015.i.i.i.i.i, metadata !19685, metadata !DIExpression()), !dbg !19698
  call void @llvm.dbg.value(metadata %"struct.std::__detail::_Hash_node"* %__p.015.i.i.i.i.i, metadata !19685, metadata !DIExpression()), !dbg !19698
  call void @llvm.dbg.value(metadata %"struct.std::__detail::_Hash_node"* %__p.015.i.i.i.i.i, metadata !19685, metadata !DIExpression()), !dbg !19698
  call void @llvm.dbg.value(metadata %"struct.std::__detail::_Hash_node"* %__p.015.i.i.i.i.i, metadata !19685, metadata !DIExpression()), !dbg !19698
  call void @llvm.dbg.value(metadata %"struct.std::__detail::_Hash_node"* %__p.015.i.i.i.i.i, metadata !19685, metadata !DIExpression()), !dbg !19698
  call void @llvm.dbg.value(metadata %"struct.std::__detail::_Hash_node"* %__p.015.i.i.i.i.i, metadata !19672, metadata !DIExpression()), !dbg !19830
  %tobool.i.i.i.i = icmp eq %"struct.std::__detail::_Hash_node"* %__p.015.i.i.i.i.i, null, !dbg !19831
  br i1 %tobool.i.i.i.i, label %if.else, label %if.then, !dbg !19833

_ZNKSt10_HashtableImSt4pairIKmhESaIS2_ENSt8__detail10_Select1stESt8equal_toImESt4hashImENS4_18_Mod_range_hashingENS4_20_Default_ranged_hashENS4_20_Prime_rehash_policyENS4_17_Hashtable_traitsILb0ELb0ELb1EEEE12_M_find_nodeEmRS1_m.exit.i.i.i: ; preds = %if.end.i.i.i.i.i
  call void @llvm.dbg.value(metadata %"struct.std::__detail::_Hash_node"* %11, metadata !19408, metadata !DIExpression()), !dbg !19834
  %tobool.i.i.i = icmp eq %"struct.std::__detail::_Hash_node"* %11, null, !dbg !19834
  br i1 %tobool.i.i.i, label %if.else, label %if.then, !dbg !19835

if.then:                                          ; preds = %_ZNKSt10_HashtableImSt4pairIKmhESaIS2_ENSt8__detail10_Select1stESt8equal_toImESt4hashImENS4_18_Mod_range_hashingENS4_20_Default_ranged_hashENS4_20_Prime_rehash_policyENS4_17_Hashtable_traitsILb0ELb0ELb1EEEE19_M_find_before_nodeEmRS1_m.exit.i.i.i.i, %_ZNKSt10_HashtableImSt4pairIKmhESaIS2_ENSt8__detail10_Select1stESt8equal_toImESt4hashImENS4_18_Mod_range_hashingENS4_20_Default_ranged_hashENS4_20_Prime_rehash_policyENS4_17_Hashtable_traitsILb0ELb0ELb1EEEE12_M_find_nodeEmRS1_m.exit.i.i.i
  %17 = phi %"struct.std::__detail::_Hash_node"* [ %11, %_ZNKSt10_HashtableImSt4pairIKmhESaIS2_ENSt8__detail10_Select1stESt8equal_toImESt4hashImENS4_18_Mod_range_hashingENS4_20_Default_ranged_hashENS4_20_Prime_rehash_policyENS4_17_Hashtable_traitsILb0ELb0ELb1EEEE12_M_find_nodeEmRS1_m.exit.i.i.i ], [ %16, %_ZNKSt10_HashtableImSt4pairIKmhESaIS2_ENSt8__detail10_Select1stESt8equal_toImESt4hashImENS4_18_Mod_range_hashingENS4_20_Default_ranged_hashENS4_20_Prime_rehash_policyENS4_17_Hashtable_traitsILb0ELb0ELb1EEEE19_M_find_before_nodeEmRS1_m.exit.i.i.i.i ]
  call void @llvm.dbg.value(metadata %"class.std::_Hashtable"* %4, metadata !19836, metadata !DIExpression()), !dbg !19842
  call void @llvm.dbg.value(metadata %"struct.std::__detail::_Hash_node"* %5, metadata !19839, metadata !DIExpression()), !dbg !19845
  call void @llvm.dbg.value(metadata %"struct.std::__detail::_Hash_node"* %5, metadata !19840, metadata !DIExpression()), !dbg !19846
  call void @llvm.dbg.value(metadata %"class.std::allocator.253"* undef, metadata !19841, metadata !DIExpression(DW_OP_deref)), !dbg !19847
  call void @llvm.dbg.value(metadata %"struct.std::__detail::_Hash_node"* %5, metadata !19848, metadata !DIExpression()), !dbg !19853
  call void @llvm.dbg.value(metadata i64 1, metadata !19852, metadata !DIExpression()), !dbg !19855
  call void @llvm.dbg.value(metadata %"struct.std::__detail::_Hash_node"* %5, metadata !19856, metadata !DIExpression()) #14, !dbg !19861
  call void @llvm.dbg.value(metadata i64 1, metadata !19860, metadata !DIExpression()) #14, !dbg !19863
  tail call void @_ZdlPv(i8* nonnull %call2.i.i.i.i.i.i) #14, !dbg !19864
  call void @llvm.dbg.value(metadata %"class.std::allocator.253"* undef, metadata !19841, metadata !DIExpression(DW_OP_deref)), !dbg !19847
  call void @llvm.dbg.value(metadata %"struct.std::__detail::_Hash_node"* %call15.i.i.i, metadata !19281, metadata !DIExpression(DW_OP_LLVM_fragment, 0, 64)), !dbg !19865
  call void @llvm.dbg.value(metadata i8 1, metadata !19281, metadata !DIExpression(DW_OP_LLVM_fragment, 64, 8)), !dbg !19865
  %18 = getelementptr inbounds %"struct.std::__detail::_Hash_node", %"struct.std::__detail::_Hash_node"* %17, i64 0, i32 0, i32 1, i32 0, i32 0, i64 8
  %19 = load i8, i8* %18, align 8, !dbg !19866
  br i1 %write, label %land.lhs.true, label %if.then.if.end_crit_edge, !dbg !19869

if.then.if.end_crit_edge:                         ; preds = %if.then
  %phitmp = zext i8 %19 to i32, !dbg !19869
  br label %cleanup, !dbg !19869

land.lhs.true:                                    ; preds = %if.then
  call void @llvm.dbg.value(metadata %"struct.std::__detail::_Node_iterator"* undef, metadata !19282, metadata !DIExpression(DW_OP_deref)), !dbg !19871
  call void @llvm.dbg.value(metadata %"struct.std::__detail::_Hash_node"* %17, metadata !19511, metadata !DIExpression()), !dbg !19872
  %cmp = icmp eq i8 %19, 2, !dbg !19879
  br i1 %cmp, label %cleanup, label %if.then7, !dbg !19880

if.then7:                                         ; preds = %land.lhs.true
  %20 = load %"class.PMGD::StripedLock"*, %"class.PMGD::StripedLock"** %mainlock, align 8, !dbg !19881
  call void @llvm.dbg.value(metadata i64 %and.i, metadata !19280, metadata !DIExpression()), !dbg !19300
  call void @llvm.dbg.value(metadata %"class.PMGD::StripedLock"* %20, metadata !19883, metadata !DIExpression()), !dbg !19888
  call void @llvm.dbg.value(metadata i64 %and.i, metadata !19886, metadata !DIExpression()), !dbg !19890
  call void @llvm.dbg.value(metadata %"class.PMGD::StripedLock"* %20, metadata !19891, metadata !DIExpression()), !dbg !19896
  call void @llvm.dbg.value(metadata i64 %and.i, metadata !19894, metadata !DIExpression()), !dbg !19898
  %_M_start.i.i7 = getelementptr inbounds %"class.PMGD::StripedLock", %"class.PMGD::StripedLock"* %20, i64 0, i32 0, i32 0, i32 0, i32 0, !dbg !19899
  %21 = load %"class.PMGD::RWLock"*, %"class.PMGD::RWLock"** %_M_start.i.i7, align 8, !dbg !19899
  %add.ptr.i.i8 = getelementptr inbounds %"class.PMGD::RWLock", %"class.PMGD::RWLock"* %21, i64 %and.i, !dbg !19900
  tail call void @_ZN4PMGD6RWLock18upgrade_write_lockEv(%"class.PMGD::RWLock"* nonnull %add.ptr.i.i8), !dbg !19901
  call void @llvm.dbg.value(metadata %"struct.std::__detail::_Node_iterator"* undef, metadata !19282, metadata !DIExpression(DW_OP_deref)), !dbg !19871
  call void @llvm.dbg.value(metadata %"struct.std::__detail::_Hash_node"* %17, metadata !19511, metadata !DIExpression()), !dbg !19902
  store i8 2, i8* %18, align 8, !dbg !19905
  br label %cleanup, !dbg !19906

if.else:                                          ; preds = %lor.lhs.false.i.i.i.i.i, %if.end3.i.i.i.i.i, %_ZNKSt10_HashtableImSt4pairIKmhESaIS2_ENSt8__detail10_Select1stESt8equal_toImESt4hashImENS4_18_Mod_range_hashingENS4_20_Default_ranged_hashENS4_20_Prime_rehash_policyENS4_17_Hashtable_traitsILb0ELb0ELb1EEEE12_M_find_nodeEmRS1_m.exit.i.i.i, %_ZNKSt10_HashtableImSt4pairIKmhESaIS2_ENSt8__detail10_Select1stESt8equal_toImESt4hashImENS4_18_Mod_range_hashingENS4_20_Default_ranged_hashENS4_20_Prime_rehash_policyENS4_17_Hashtable_traitsILb0ELb0ELb1EEEE19_M_find_before_nodeEmRS1_m.exit.i.i.i.i, %entry
  %call15.i.i.i = tail call %"struct.std::__detail::_Hash_node"* @_ZNSt10_HashtableImSt4pairIKmhESaIS2_ENSt8__detail10_Select1stESt8equal_toImESt4hashImENS4_18_Mod_range_hashingENS4_20_Default_ranged_hashENS4_20_Prime_rehash_policyENS4_17_Hashtable_traitsILb0ELb0ELb1EEEE21_M_insert_unique_nodeEmmPNS4_10_Hash_nodeIS2_Lb0EEE(%"class.std::_Hashtable"* %4, i64 %rem.i.i.i.i.i.i, i64 %and.i, %"struct.std::__detail::_Hash_node"* nonnull %5), !dbg !19907
  call void @llvm.dbg.value(metadata %"struct.std::__detail::_Hash_node"* %call15.i.i.i, metadata !19281, metadata !DIExpression(DW_OP_LLVM_fragment, 0, 64)), !dbg !19865
  call void @llvm.dbg.value(metadata i8 1, metadata !19281, metadata !DIExpression(DW_OP_LLVM_fragment, 64, 8)), !dbg !19865
  %22 = load %"class.PMGD::StripedLock"*, %"class.PMGD::StripedLock"** %mainlock, align 8, !dbg !19908
  call void @llvm.dbg.value(metadata i64 %and.i, metadata !19280, metadata !DIExpression()), !dbg !19300
  %_M_start.i.i4 = getelementptr inbounds %"class.PMGD::StripedLock", %"class.PMGD::StripedLock"* %22, i64 0, i32 0, i32 0, i32 0, i32 0, !dbg !19908
  %23 = load %"class.PMGD::RWLock"*, %"class.PMGD::RWLock"** %_M_start.i.i4, align 8, !dbg !19908
  %add.ptr.i.i5 = getelementptr inbounds %"class.PMGD::RWLock", %"class.PMGD::RWLock"* %23, i64 %and.i, !dbg !19908
  br i1 %write, label %if.then15, label %if.else19, !dbg !19911

if.then15:                                        ; preds = %if.else
  call void @llvm.dbg.value(metadata %"class.PMGD::StripedLock"* %22, metadata !19912, metadata !DIExpression()), !dbg !19916
  call void @llvm.dbg.value(metadata i64 %and.i, metadata !19915, metadata !DIExpression()), !dbg !19919
  call void @llvm.dbg.value(metadata %"class.PMGD::StripedLock"* %22, metadata !19891, metadata !DIExpression()), !dbg !19920
  call void @llvm.dbg.value(metadata i64 %and.i, metadata !19894, metadata !DIExpression()), !dbg !19922
  tail call void @_ZN4PMGD6RWLock10write_lockEv(%"class.PMGD::RWLock"* nonnull %add.ptr.i.i5), !dbg !19923
  call void @llvm.dbg.value(metadata %"struct.std::__detail::_Node_iterator"* undef, metadata !19282, metadata !DIExpression(DW_OP_deref)), !dbg !19871
  call void @llvm.dbg.value(metadata %"struct.std::__detail::_Hash_node"* %call15.i.i.i, metadata !19511, metadata !DIExpression()), !dbg !19924
  %24 = getelementptr inbounds %"struct.std::__detail::_Hash_node", %"struct.std::__detail::_Hash_node"* %call15.i.i.i, i64 0, i32 0, i32 1, i32 0, i32 0, i64 8, !dbg !19927
  store i8 2, i8* %24, align 8, !dbg !19928
  br label %cleanup, !dbg !19929

if.else19:                                        ; preds = %if.else
  call void @llvm.dbg.value(metadata %"class.PMGD::StripedLock"* %22, metadata !19930, metadata !DIExpression()), !dbg !19934
  call void @llvm.dbg.value(metadata i64 %and.i, metadata !19933, metadata !DIExpression()), !dbg !19937
  call void @llvm.dbg.value(metadata %"class.PMGD::StripedLock"* %22, metadata !19891, metadata !DIExpression()), !dbg !19938
  call void @llvm.dbg.value(metadata i64 %and.i, metadata !19894, metadata !DIExpression()), !dbg !19940
  tail call void @_ZN4PMGD6RWLock9read_lockEv(%"class.PMGD::RWLock"* nonnull %add.ptr.i.i5), !dbg !19941
  call void @llvm.dbg.value(metadata %"struct.std::__detail::_Node_iterator"* undef, metadata !19282, metadata !DIExpression(DW_OP_deref)), !dbg !19871
  call void @llvm.dbg.value(metadata %"struct.std::__detail::_Hash_node"* %call15.i.i.i, metadata !19511, metadata !DIExpression()), !dbg !19942
  %25 = getelementptr inbounds %"struct.std::__detail::_Hash_node", %"struct.std::__detail::_Hash_node"* %call15.i.i.i, i64 0, i32 0, i32 1, i32 0, i32 0, i64 8, !dbg !19945
  store i8 1, i8* %25, align 8, !dbg !19946
  br label %cleanup

cleanup:                                          ; preds = %land.lhs.true, %if.then.if.end_crit_edge, %if.then15, %if.else19, %if.then7
  %retval.0 = phi i32 [ 1, %if.then7 ], [ 0, %if.else19 ], [ 0, %if.then15 ], [ %phitmp, %if.then.if.end_crit_edge ], [ 2, %land.lhs.true ], !dbg !19947
  ret i32 %retval.0, !dbg !19948
}

; Function Attrs: uwtable
define void @_ZN4PMGD15TransactionImpl3logEPvm(%"class.PMGD::TransactionImpl"* nocapture %this, i8* %ptr, i64 %len) local_unnamed_addr #6 align 2 personality i8* bitcast (i32 (...)* @__gxx_personality_v0 to i8*) !dbg !19949 {
entry:
  call void @llvm.dbg.value(metadata %"class.PMGD::TransactionImpl"* %this, metadata !19951, metadata !DIExpression()), !dbg !19957
  call void @llvm.dbg.value(metadata i8* %ptr, metadata !19952, metadata !DIExpression()), !dbg !19958
  call void @llvm.dbg.value(metadata i64 %len, metadata !19953, metadata !DIExpression()), !dbg !19959
  %cmp = icmp eq i64 %len, 0, !dbg !19960
  br i1 %cmp, label %cond.false, label %cond.end, !dbg !19960

cond.false:                                       ; preds = %entry
  tail call void @__assert_fail(i8* getelementptr inbounds ([8 x i8], [8 x i8]* @.str.53, i64 0, i64 0), i8* getelementptr inbounds ([19 x i8], [19 x i8]* @.str.52, i64 0, i64 0), i32 141, i8* getelementptr inbounds ([48 x i8], [48 x i8]* @__PRETTY_FUNCTION__._ZN4PMGD15TransactionImpl3logEPvm, i64 0, i64 0)) #15, !dbg !19960
  unreachable, !dbg !19960

cond.end:                                         ; preds = %entry
  %add = add i64 %len, 48, !dbg !19961
  %div = udiv i64 %add, 48, !dbg !19962
  call void @llvm.dbg.value(metadata i64 %div, metadata !19954, metadata !DIExpression()), !dbg !19963
  %_jcur = getelementptr inbounds %"class.PMGD::TransactionImpl", %"class.PMGD::TransactionImpl"* %this, i64 0, i32 4, !dbg !19964
  %0 = load %"struct.PMGD::TransactionImpl::JournalEntry"*, %"struct.PMGD::TransactionImpl::JournalEntry"** %_jcur, align 8, !dbg !19964
  %add.ptr = getelementptr inbounds %"struct.PMGD::TransactionImpl::JournalEntry", %"struct.PMGD::TransactionImpl::JournalEntry"* %0, i64 %div, !dbg !19966
  call void @llvm.dbg.value(metadata %"class.PMGD::TransactionImpl"* %this, metadata !19967, metadata !DIExpression()), !dbg !19970
  %jend.i = getelementptr inbounds %"class.PMGD::TransactionImpl", %"class.PMGD::TransactionImpl"* %this, i64 0, i32 3, i32 3, !dbg !19972
  %1 = bitcast i8** %jend.i to %"struct.PMGD::TransactionImpl::JournalEntry"**, !dbg !19972
  %2 = load %"struct.PMGD::TransactionImpl::JournalEntry"*, %"struct.PMGD::TransactionImpl::JournalEntry"** %1, align 8, !dbg !19972
  %cmp2 = icmp ult %"struct.PMGD::TransactionImpl::JournalEntry"* %add.ptr, %2, !dbg !19973
  %3 = getelementptr inbounds %"struct.PMGD::TransactionImpl::JournalEntry", %"struct.PMGD::TransactionImpl::JournalEntry"* %0, i64 0, i32 0, !dbg !19974
  br i1 %cmp2, label %for.cond.preheader, label %if.then, !dbg !19974

for.cond.preheader:                               ; preds = %cond.end
  call void @llvm.dbg.value(metadata i32 0, metadata !19955, metadata !DIExpression()), !dbg !19975
  call void @llvm.dbg.value(metadata i8* %ptr, metadata !19952, metadata !DIExpression()), !dbg !19958
  %sub = add nsw i64 %div, -1, !dbg !19976
  %cmp730 = icmp eq i64 %sub, 0, !dbg !19978
  %.pre = bitcast %"struct.PMGD::TransactionImpl::JournalEntry"** %_jcur to i64**
  br i1 %cmp730, label %for.cond.preheader.for.cond.cleanup_crit_edge, label %for.body.lr.ph, !dbg !19979

for.cond.preheader.for.cond.cleanup_crit_edge:    ; preds = %for.cond.preheader
  %.pre33 = bitcast %"struct.PMGD::TransactionImpl::JournalEntry"** %_jcur to i8**, !dbg !19980
  br label %for.cond.cleanup, !dbg !19979

for.body.lr.ph:                                   ; preds = %for.cond.preheader
  %id.i.i = getelementptr inbounds %"class.PMGD::TransactionImpl", %"class.PMGD::TransactionImpl"* %this, i64 0, i32 3, i32 0
  %4 = bitcast %"struct.PMGD::TransactionImpl::JournalEntry"** %_jcur to i8**
  br label %for.body, !dbg !19979

if.then:                                          ; preds = %cond.end
  %_tx_type = getelementptr inbounds %"class.PMGD::TransactionImpl", %"class.PMGD::TransactionImpl"* %this, i64 0, i32 1, !dbg !19987
  %5 = load i32, i32* %_tx_type, align 8, !dbg !19987
  %and = and i32 %5, 2, !dbg !19990
  %tobool = icmp eq i32 %and, 0, !dbg !19987
  %exception = tail call i8* @__cxa_allocate_exception(i64 72) #14, !dbg !19991
  %num.i9 = bitcast i8* %exception to i32*, !dbg !19991
  br i1 %tobool, label %if.else, label %if.then3, !dbg !19992

if.then3:                                         ; preds = %if.then
  call void @llvm.dbg.value(metadata i32 13, metadata !18954, metadata !DIExpression()), !dbg !19993
  call void @llvm.dbg.value(metadata i8* getelementptr inbounds ([18 x i8], [18 x i8]* @.str.54, i64 0, i64 0), metadata !18955, metadata !DIExpression()), !dbg !19995
  call void @llvm.dbg.value(metadata i8* getelementptr inbounds ([19 x i8], [19 x i8]* @.str.52, i64 0, i64 0), metadata !18956, metadata !DIExpression()), !dbg !19996
  call void @llvm.dbg.value(metadata i32 146, metadata !18957, metadata !DIExpression()), !dbg !19997
  store i32 13, i32* %num.i9, align 8, !dbg !19998
  %name.i = getelementptr inbounds i8, i8* %exception, i64 8, !dbg !19999
  %6 = bitcast i8* %name.i to i8**, !dbg !19999
  store i8* getelementptr inbounds ([18 x i8], [18 x i8]* @.str.54, i64 0, i64 0), i8** %6, align 8, !dbg !19999
  %msg.i = getelementptr inbounds i8, i8* %exception, i64 16, !dbg !20000
  call void @llvm.dbg.value(metadata i8* %msg.i, metadata !18967, metadata !DIExpression()), !dbg !20001
  call void @llvm.dbg.value(metadata i8* %msg.i, metadata !18476, metadata !DIExpression()), !dbg !20003
  %7 = getelementptr inbounds i8, i8* %exception, i64 32, !dbg !20005
  call void @llvm.dbg.value(metadata i8* %msg.i, metadata !18482, metadata !DIExpression()), !dbg !20006
  call void @llvm.dbg.value(metadata i8* %7, metadata !18485, metadata !DIExpression()), !dbg !20008
  call void @llvm.dbg.value(metadata %"class.std::allocator"* undef, metadata !18486, metadata !DIExpression()), !dbg !20009
  %8 = bitcast i8* %msg.i to i8**, !dbg !20010
  store i8* %7, i8** %8, align 8, !dbg !20010
  call void @llvm.dbg.value(metadata i8** %8, metadata !18575, metadata !DIExpression()), !dbg !20011
  call void @llvm.dbg.value(metadata i64 0, metadata !18578, metadata !DIExpression()), !dbg !20013
  call void @llvm.dbg.value(metadata i8** %8, metadata !18582, metadata !DIExpression()), !dbg !20014
  call void @llvm.dbg.value(metadata i64 0, metadata !18585, metadata !DIExpression()), !dbg !20016
  %_M_string_length.i.i.i.i = getelementptr inbounds i8, i8* %exception, i64 24, !dbg !20017
  %9 = bitcast i8* %_M_string_length.i.i.i.i to i64*, !dbg !20017
  store i64 0, i64* %9, align 8, !dbg !20018
  call void @llvm.dbg.value(metadata i8* %7, metadata !18594, metadata !DIExpression()), !dbg !20019
  store i8 0, i8* %7, align 1, !dbg !20021
  %errno_val.i = getelementptr inbounds i8, i8* %exception, i64 48, !dbg !20022
  %10 = bitcast i8* %errno_val.i to i32*, !dbg !20022
  store i32 0, i32* %10, align 8, !dbg !20022
  %file.i = getelementptr inbounds i8, i8* %exception, i64 56, !dbg !20023
  %11 = bitcast i8* %file.i to i8**, !dbg !20023
  store i8* getelementptr inbounds ([19 x i8], [19 x i8]* @.str.52, i64 0, i64 0), i8** %11, align 8, !dbg !20023
  %line.i = getelementptr inbounds i8, i8* %exception, i64 64, !dbg !20024
  %12 = bitcast i8* %line.i to i32*, !dbg !20024
  store i32 146, i32* %12, align 8, !dbg !20024
  tail call void @__cxa_throw(i8* %exception, i8* bitcast ({ i8*, i8* }* @_ZTIN4PMGD9ExceptionE to i8*), i8* bitcast (void (%"struct.PMGD::Exception"*)* @_ZN4PMGD9ExceptionD2Ev to i8*)) #16, !dbg !20025
  unreachable, !dbg !20025

if.else:                                          ; preds = %if.then
  call void @llvm.dbg.value(metadata i8* %exception, metadata !18951, metadata !DIExpression()), !dbg !20026
  call void @llvm.dbg.value(metadata i8* %exception, metadata !18951, metadata !DIExpression()), !dbg !20028
  call void @llvm.dbg.value(metadata i32 6, metadata !18954, metadata !DIExpression()), !dbg !20029
  call void @llvm.dbg.value(metadata i8* getelementptr inbounds ([9 x i8], [9 x i8]* @.str.45, i64 0, i64 0), metadata !18955, metadata !DIExpression()), !dbg !20030
  call void @llvm.dbg.value(metadata i8* getelementptr inbounds ([19 x i8], [19 x i8]* @.str.52, i64 0, i64 0), metadata !18956, metadata !DIExpression()), !dbg !20031
  call void @llvm.dbg.value(metadata i32 148, metadata !18957, metadata !DIExpression()), !dbg !20032
  store i32 6, i32* %num.i9, align 8, !dbg !20033
  %name.i10 = getelementptr inbounds i8, i8* %exception, i64 8, !dbg !20034
  %13 = bitcast i8* %name.i10 to i8**, !dbg !20034
  store i8* getelementptr inbounds ([9 x i8], [9 x i8]* @.str.45, i64 0, i64 0), i8** %13, align 8, !dbg !20034
  %msg.i11 = getelementptr inbounds i8, i8* %exception, i64 16, !dbg !20035
  call void @llvm.dbg.value(metadata i8* %msg.i11, metadata !18967, metadata !DIExpression()), !dbg !20036
  call void @llvm.dbg.value(metadata i8* %msg.i11, metadata !18476, metadata !DIExpression()), !dbg !20038
  %14 = getelementptr inbounds i8, i8* %exception, i64 32, !dbg !20040
  call void @llvm.dbg.value(metadata i8* %msg.i11, metadata !18482, metadata !DIExpression()), !dbg !20041
  call void @llvm.dbg.value(metadata i8* %14, metadata !18485, metadata !DIExpression()), !dbg !20043
  call void @llvm.dbg.value(metadata %"class.std::allocator"* undef, metadata !18486, metadata !DIExpression()), !dbg !20044
  %15 = bitcast i8* %msg.i11 to i8**, !dbg !20045
  store i8* %14, i8** %15, align 8, !dbg !20045
  call void @llvm.dbg.value(metadata i8** %15, metadata !18575, metadata !DIExpression()), !dbg !20046
  call void @llvm.dbg.value(metadata i64 0, metadata !18578, metadata !DIExpression()), !dbg !20048
  call void @llvm.dbg.value(metadata i8** %15, metadata !18582, metadata !DIExpression()), !dbg !20049
  call void @llvm.dbg.value(metadata i64 0, metadata !18585, metadata !DIExpression()), !dbg !20051
  %_M_string_length.i.i.i.i12 = getelementptr inbounds i8, i8* %exception, i64 24, !dbg !20052
  %16 = bitcast i8* %_M_string_length.i.i.i.i12 to i64*, !dbg !20052
  store i64 0, i64* %16, align 8, !dbg !20053
  call void @llvm.dbg.value(metadata i8* %14, metadata !18594, metadata !DIExpression()), !dbg !20054
  store i8 0, i8* %14, align 1, !dbg !20056
  %errno_val.i14 = getelementptr inbounds i8, i8* %exception, i64 48, !dbg !20057
  %17 = bitcast i8* %errno_val.i14 to i32*, !dbg !20057
  store i32 0, i32* %17, align 8, !dbg !20057
  %file.i15 = getelementptr inbounds i8, i8* %exception, i64 56, !dbg !20058
  %18 = bitcast i8* %file.i15 to i8**, !dbg !20058
  store i8* getelementptr inbounds ([19 x i8], [19 x i8]* @.str.52, i64 0, i64 0), i8** %18, align 8, !dbg !20058
  %line.i16 = getelementptr inbounds i8, i8* %exception, i64 64, !dbg !20059
  %19 = bitcast i8* %line.i16 to i32*, !dbg !20059
  store i32 148, i32* %19, align 8, !dbg !20059
  tail call void @__cxa_throw(i8* %exception, i8* bitcast ({ i8*, i8* }* @_ZTIN4PMGD9ExceptionE to i8*), i8* bitcast (void (%"struct.PMGD::Exception"*)* @_ZN4PMGD9ExceptionD2Ev to i8*)) #16, !dbg !20060
  unreachable, !dbg !20060

for.cond.cleanup:                                 ; preds = %for.body, %for.cond.preheader.for.cond.cleanup_crit_edge
  %.pre-phi34 = phi i8** [ %.pre33, %for.cond.preheader.for.cond.cleanup_crit_edge ], [ %4, %for.body ], !dbg !19980
  %20 = phi i64* [ %3, %for.cond.preheader.for.cond.cleanup_crit_edge ], [ %38, %for.body ], !dbg !20061
  %ptr.addr.0.lcssa = phi i8* [ %ptr, %for.cond.preheader.for.cond.cleanup_crit_edge ], [ %add.ptr8, %for.body ]
  call void @llvm.dbg.value(metadata i8* %ptr.addr.0.lcssa, metadata !19952, metadata !DIExpression()), !dbg !19958
  %rem = urem i64 %len, 48, !dbg !20062
  call void @llvm.dbg.value(metadata %"class.PMGD::TransactionImpl"* %this, metadata !19983, metadata !DIExpression()) #14, !dbg !20063
  call void @llvm.dbg.value(metadata i8* %ptr.addr.0.lcssa, metadata !19984, metadata !DIExpression()) #14, !dbg !20064
  call void @llvm.dbg.value(metadata i64 %rem, metadata !19985, metadata !DIExpression()) #14, !dbg !20065
  %bf.load.i18 = load i64, i64* %20, align 8, !dbg !20066
  %bf.shl.i = shl nuw nsw i64 %rem, 56, !dbg !20066
  %bf.clear.i19 = and i64 %bf.load.i18, 72057594037927935, !dbg !20066
  %bf.set.i20 = or i64 %bf.clear.i19, %bf.shl.i, !dbg !20066
  store i64 %bf.set.i20, i64* %20, align 8, !dbg !20066
  %21 = load %"struct.PMGD::TransactionImpl::JournalEntry"*, %"struct.PMGD::TransactionImpl::JournalEntry"** %_jcur, align 8, !dbg !20067
  %addr.i21 = getelementptr inbounds %"struct.PMGD::TransactionImpl::JournalEntry", %"struct.PMGD::TransactionImpl::JournalEntry"* %21, i64 0, i32 1, !dbg !20068
  store i8* %ptr.addr.0.lcssa, i8** %addr.i21, align 8, !dbg !20069
  %22 = load %"struct.PMGD::TransactionImpl::JournalEntry"*, %"struct.PMGD::TransactionImpl::JournalEntry"** %_jcur, align 8, !dbg !20070
  %arrayidx.i22 = getelementptr inbounds %"struct.PMGD::TransactionImpl::JournalEntry", %"struct.PMGD::TransactionImpl::JournalEntry"* %22, i64 0, i32 2, i64 0, !dbg !20070
  tail call void @llvm.memcpy.p0i8.p0i8.i64(i8* nonnull align 8 %arrayidx.i22, i8* align 1 %ptr.addr.0.lcssa, i64 %rem, i1 false) #14, !dbg !20071
  tail call void asm sideeffect "", "~{memory},~{dirflag},~{fpsr},~{flags}"() #14, !dbg !20072, !srcloc !20075
  call void @llvm.dbg.value(metadata %"class.PMGD::TransactionImpl"* %this, metadata !20076, metadata !DIExpression()) #14, !dbg !20080
  %id.i.i23 = getelementptr inbounds %"class.PMGD::TransactionImpl", %"class.PMGD::TransactionImpl"* %this, i64 0, i32 3, i32 0, !dbg !20082
  %23 = load i64, i64* %id.i.i23, align 8, !dbg !20082
  %24 = load i64*, i64** %.pre, align 8, !dbg !20083
  %bf.load6.i24 = load i64, i64* %24, align 8, !dbg !20084
  %bf.value7.i25 = and i64 %23, 72057594037927935, !dbg !20084
  %bf.clear8.i26 = and i64 %bf.load6.i24, -72057594037927936, !dbg !20084
  %bf.set9.i27 = or i64 %bf.clear8.i26, %bf.value7.i25, !dbg !20084
  store i64 %bf.set9.i27, i64* %24, align 8, !dbg !20084
  %25 = load i8*, i8** %.pre-phi34, align 8, !dbg !19980
  call void @llvm.dbg.value(metadata i8* %25, metadata !20085, metadata !DIExpression()) #14, !dbg !20090
  call void @llvm.dbg.value(metadata i8 undef, metadata !20088, metadata !DIExpression()) #14, !dbg !20092
  call void @llvm.dbg.value(metadata %"class.PMGD::TransactionImpl"* %this, metadata !20089, metadata !DIExpression(DW_OP_plus_uconst, 144, DW_OP_stack_value)) #14, !dbg !20093
  call void @llvm.dbg.value(metadata i8* %25, metadata !20094, metadata !DIExpression()) #14, !dbg !20097
  %26 = ptrtoint i8* %25 to i64, !dbg !20099
  %and.i.i.i28 = and i64 %26, -64, !dbg !20100
  %27 = inttoptr i64 %and.i.i.i28 to [64 x i8]*, !dbg !20101
  tail call void asm sideeffect "clflushopt $0", "*m,*m,~{dirflag},~{fpsr},~{flags}"(i8* %25, [64 x i8]* %27) #14, !dbg !20102, !srcloc !20103
  %28 = load %"struct.PMGD::TransactionImpl::JournalEntry"*, %"struct.PMGD::TransactionImpl::JournalEntry"** %_jcur, align 8, !dbg !20104
  %incdec.ptr.i29 = getelementptr inbounds %"struct.PMGD::TransactionImpl::JournalEntry", %"struct.PMGD::TransactionImpl::JournalEntry"* %28, i64 1, !dbg !20104
  store %"struct.PMGD::TransactionImpl::JournalEntry"* %incdec.ptr.i29, %"struct.PMGD::TransactionImpl::JournalEntry"** %_jcur, align 8, !dbg !20104
  call void @llvm.dbg.value(metadata i8 undef, metadata !20105, metadata !DIExpression()) #14, !dbg !20109
  call void @llvm.dbg.value(metadata %"class.PMGD::TransactionImpl"* %this, metadata !20108, metadata !DIExpression(DW_OP_plus_uconst, 144, DW_OP_stack_value)) #14, !dbg !20111
  tail call void asm sideeffect "sfence", "~{memory},~{dirflag},~{fpsr},~{flags}"() #14, !dbg !20112, !srcloc !20115
  ret void, !dbg !20116

for.body:                                         ; preds = %for.body.lr.ph, %for.body
  %29 = phi i64* [ %3, %for.body.lr.ph ], [ %38, %for.body ], !dbg !20117
  %i.032 = phi i32 [ 0, %for.body.lr.ph ], [ %inc, %for.body ]
  %ptr.addr.031 = phi i8* [ %ptr, %for.body.lr.ph ], [ %add.ptr8, %for.body ]
  call void @llvm.dbg.value(metadata i32 %i.032, metadata !19955, metadata !DIExpression()), !dbg !19975
  call void @llvm.dbg.value(metadata i8* %ptr.addr.031, metadata !19952, metadata !DIExpression()), !dbg !19958
  call void @llvm.dbg.value(metadata %"class.PMGD::TransactionImpl"* %this, metadata !19983, metadata !DIExpression()) #14, !dbg !20120
  call void @llvm.dbg.value(metadata i8* %ptr.addr.031, metadata !19984, metadata !DIExpression()) #14, !dbg !20121
  call void @llvm.dbg.value(metadata i64 48, metadata !19985, metadata !DIExpression()) #14, !dbg !20122
  %bf.load.i = load i64, i64* %29, align 8, !dbg !20123
  %bf.clear.i = and i64 %bf.load.i, 72057594037927935, !dbg !20123
  %bf.set.i = or i64 %bf.clear.i, 3458764513820540928, !dbg !20123
  store i64 %bf.set.i, i64* %29, align 8, !dbg !20123
  %30 = load %"struct.PMGD::TransactionImpl::JournalEntry"*, %"struct.PMGD::TransactionImpl::JournalEntry"** %_jcur, align 8, !dbg !20124
  %addr.i = getelementptr inbounds %"struct.PMGD::TransactionImpl::JournalEntry", %"struct.PMGD::TransactionImpl::JournalEntry"* %30, i64 0, i32 1, !dbg !20125
  store i8* %ptr.addr.031, i8** %addr.i, align 8, !dbg !20126
  %31 = load %"struct.PMGD::TransactionImpl::JournalEntry"*, %"struct.PMGD::TransactionImpl::JournalEntry"** %_jcur, align 8, !dbg !20127
  %arrayidx.i = getelementptr inbounds %"struct.PMGD::TransactionImpl::JournalEntry", %"struct.PMGD::TransactionImpl::JournalEntry"* %31, i64 0, i32 2, i64 0, !dbg !20127
  tail call void @llvm.memcpy.p0i8.p0i8.i64(i8* nonnull align 8 %arrayidx.i, i8* align 1 %ptr.addr.031, i64 48, i1 false) #14, !dbg !20128
  tail call void asm sideeffect "", "~{memory},~{dirflag},~{fpsr},~{flags}"() #14, !dbg !20129, !srcloc !20075
  call void @llvm.dbg.value(metadata %"class.PMGD::TransactionImpl"* %this, metadata !20076, metadata !DIExpression()) #14, !dbg !20131
  %32 = load i64, i64* %id.i.i, align 8, !dbg !20133
  %33 = load i64*, i64** %.pre, align 8, !dbg !20134
  %bf.load6.i = load i64, i64* %33, align 8, !dbg !20135
  %bf.value7.i = and i64 %32, 72057594037927935, !dbg !20135
  %bf.clear8.i = and i64 %bf.load6.i, -72057594037927936, !dbg !20135
  %bf.set9.i = or i64 %bf.clear8.i, %bf.value7.i, !dbg !20135
  store i64 %bf.set9.i, i64* %33, align 8, !dbg !20135
  %34 = load i8*, i8** %4, align 8, !dbg !20136
  call void @llvm.dbg.value(metadata i8* %34, metadata !20085, metadata !DIExpression()) #14, !dbg !20137
  call void @llvm.dbg.value(metadata i8 undef, metadata !20088, metadata !DIExpression()) #14, !dbg !20139
  call void @llvm.dbg.value(metadata %"class.PMGD::TransactionImpl"* %this, metadata !20089, metadata !DIExpression(DW_OP_plus_uconst, 144, DW_OP_stack_value)) #14, !dbg !20140
  call void @llvm.dbg.value(metadata i8* %34, metadata !20094, metadata !DIExpression()) #14, !dbg !20141
  %35 = ptrtoint i8* %34 to i64, !dbg !20143
  %and.i.i.i = and i64 %35, -64, !dbg !20144
  %36 = inttoptr i64 %and.i.i.i to [64 x i8]*, !dbg !20145
  tail call void asm sideeffect "clflushopt $0", "*m,*m,~{dirflag},~{fpsr},~{flags}"(i8* %34, [64 x i8]* %36) #14, !dbg !20146, !srcloc !20103
  %37 = load %"struct.PMGD::TransactionImpl::JournalEntry"*, %"struct.PMGD::TransactionImpl::JournalEntry"** %_jcur, align 8, !dbg !20147
  %incdec.ptr.i = getelementptr inbounds %"struct.PMGD::TransactionImpl::JournalEntry", %"struct.PMGD::TransactionImpl::JournalEntry"* %37, i64 1, !dbg !20147
  store %"struct.PMGD::TransactionImpl::JournalEntry"* %incdec.ptr.i, %"struct.PMGD::TransactionImpl::JournalEntry"** %_jcur, align 8, !dbg !20147
  %add.ptr8 = getelementptr inbounds i8, i8* %ptr.addr.031, i64 48, !dbg !20148
  %inc = add i32 %i.032, 1, !dbg !20149
  call void @llvm.dbg.value(metadata i32 %inc, metadata !19955, metadata !DIExpression()), !dbg !19975
  call void @llvm.dbg.value(metadata i8* %add.ptr8, metadata !19952, metadata !DIExpression()), !dbg !19958
  %conv = zext i32 %inc to i64, !dbg !20150
  %cmp7 = icmp ugt i64 %sub, %conv, !dbg !19978
  %38 = getelementptr inbounds %"struct.PMGD::TransactionImpl::JournalEntry", %"struct.PMGD::TransactionImpl::JournalEntry"* %incdec.ptr.i, i64 0, i32 0, !dbg !19979
  br i1 %cmp7, label %for.body, label %for.cond.cleanup, !dbg !19979, !llvm.loop !20151
}

; Function Attrs: nounwind uwtable
define void @_ZN4PMGD15TransactionImpl11flush_rangeEPvm(%"class.PMGD::TransactionImpl"* nocapture readonly %this, i8* %ptr, i64 %len) local_unnamed_addr #7 align 2 !dbg !20153 {
entry:
  call void @llvm.dbg.value(metadata %"class.PMGD::TransactionImpl"* %this, metadata !20155, metadata !DIExpression()), !dbg !20158
  call void @llvm.dbg.value(metadata i8* %ptr, metadata !20156, metadata !DIExpression()), !dbg !20159
  call void @llvm.dbg.value(metadata i64 %len, metadata !20157, metadata !DIExpression()), !dbg !20160
  call void @llvm.dbg.value(metadata i8* %ptr, metadata !20161, metadata !DIExpression()) #14, !dbg !20169
  call void @llvm.dbg.value(metadata i64 %len, metadata !20164, metadata !DIExpression()) #14, !dbg !20171
  call void @llvm.dbg.value(metadata %"class.PMGD::TransactionImpl"* %this, metadata !20166, metadata !DIExpression(DW_OP_plus_uconst, 144, DW_OP_stack_value)) #14, !dbg !20172
  %0 = ptrtoint i8* %ptr to i64, !dbg !20173
  %and.i = and i64 %0, 63, !dbg !20174
  call void @llvm.dbg.value(metadata i64 undef, metadata !20175, metadata !DIExpression()) #14, !dbg !20183
  call void @llvm.dbg.value(metadata i64 64, metadata !20180, metadata !DIExpression()) #14, !dbg !20185
  %add.i = add i64 %len, 63, !dbg !20186
  %add.i.i = add i64 %add.i, %and.i, !dbg !20187
  %and.i.i = and i64 %add.i.i, -64, !dbg !20188
  call void @llvm.dbg.value(metadata i64 %and.i.i, metadata !20164, metadata !DIExpression()) #14, !dbg !20171
  call void @llvm.dbg.value(metadata i8* %ptr, metadata !20167, metadata !DIExpression()) #14, !dbg !20189
  %add.ptr.i = getelementptr inbounds i8, i8* %ptr, i64 %and.i.i, !dbg !20190
  call void @llvm.dbg.value(metadata i8* %add.ptr.i, metadata !20168, metadata !DIExpression()) #14, !dbg !20192
  call void @llvm.dbg.value(metadata i8* %ptr, metadata !20167, metadata !DIExpression()) #14, !dbg !20189
  %cmp8.i = icmp sgt i64 %and.i.i, 0, !dbg !20193
  br i1 %cmp8.i, label %for.body.i, label %_ZN4PMGD15TransactionImpl11flush_rangeEPvmbRNS_8RangeSetE.exit, !dbg !20195

for.body.i:                                       ; preds = %entry, %for.body.i
  %addr.09.i = phi i8* [ %add.ptr1.i, %for.body.i ], [ %ptr, %entry ]
  call void @llvm.dbg.value(metadata i8* %addr.09.i, metadata !20167, metadata !DIExpression()) #14, !dbg !20189
  call void @llvm.dbg.value(metadata i8* %addr.09.i, metadata !20085, metadata !DIExpression()) #14, !dbg !20196
  call void @llvm.dbg.value(metadata i8 undef, metadata !20088, metadata !DIExpression()) #14, !dbg !20198
  call void @llvm.dbg.value(metadata %"class.PMGD::TransactionImpl"* %this, metadata !20089, metadata !DIExpression(DW_OP_plus_uconst, 144, DW_OP_stack_value)) #14, !dbg !20199
  call void @llvm.dbg.value(metadata i8* %addr.09.i, metadata !20094, metadata !DIExpression()) #14, !dbg !20200
  %1 = ptrtoint i8* %addr.09.i to i64, !dbg !20202
  %and.i.i.i = and i64 %1, -64, !dbg !20203
  %2 = inttoptr i64 %and.i.i.i to [64 x i8]*, !dbg !20204
  tail call void asm sideeffect "clflushopt $0", "*m,*m,~{dirflag},~{fpsr},~{flags}"(i8* %addr.09.i, [64 x i8]* %2) #14, !dbg !20205, !srcloc !20103
  %add.ptr1.i = getelementptr inbounds i8, i8* %addr.09.i, i64 64, !dbg !20206
  call void @llvm.dbg.value(metadata i8* %add.ptr1.i, metadata !20167, metadata !DIExpression()) #14, !dbg !20189
  %cmp.i = icmp ult i8* %add.ptr1.i, %add.ptr.i, !dbg !20193
  br i1 %cmp.i, label %for.body.i, label %_ZN4PMGD15TransactionImpl11flush_rangeEPvmbRNS_8RangeSetE.exit, !dbg !20195, !llvm.loop !20207

_ZN4PMGD15TransactionImpl11flush_rangeEPvmbRNS_8RangeSetE.exit: ; preds = %for.body.i, %entry
  ret void, !dbg !20210
}

; Function Attrs: uwtable
define void @_ZN4PMGD15TransactionImpl15finalize_commitEv(%"class.PMGD::TransactionImpl"* %this) local_unnamed_addr #6 align 2 !dbg !20211 {
entry:
  call void @llvm.dbg.value(metadata %"class.PMGD::TransactionImpl"* %this, metadata !20213, metadata !DIExpression()), !dbg !20216
  %_commit_callback_list = getelementptr inbounds %"class.PMGD::TransactionImpl", %"class.PMGD::TransactionImpl"* %this, i64 0, i32 6, !dbg !20217
  tail call void @_ZNK4PMGD12CallbackListIPvPNS_15TransactionImplEE12do_callbacksES3_(%"class.PMGD::CallbackList.138"* nonnull %_commit_callback_list, %"class.PMGD::TransactionImpl"* %this), !dbg !20218
  call void @llvm.dbg.value(metadata %"class.PMGD::TransactionImpl"* %this, metadata !20219, metadata !DIExpression()), !dbg !20222
  %jbegin.i = getelementptr inbounds %"class.PMGD::TransactionImpl", %"class.PMGD::TransactionImpl"* %this, i64 0, i32 3, i32 2, !dbg !20224
  %0 = bitcast i8** %jbegin.i to %"struct.PMGD::TransactionImpl::JournalEntry"**, !dbg !20224
  %1 = load %"struct.PMGD::TransactionImpl::JournalEntry"*, %"struct.PMGD::TransactionImpl::JournalEntry"** %0, align 8, !dbg !20224
  call void @llvm.dbg.value(metadata %"struct.PMGD::TransactionImpl::JournalEntry"* %1, metadata !20214, metadata !DIExpression()), !dbg !20225
  %_jcur = getelementptr inbounds %"class.PMGD::TransactionImpl", %"class.PMGD::TransactionImpl"* %this, i64 0, i32 4, !dbg !20226
  %2 = load %"struct.PMGD::TransactionImpl::JournalEntry"*, %"struct.PMGD::TransactionImpl::JournalEntry"** %_jcur, align 8, !dbg !20226
  %cmp4 = icmp ult %"struct.PMGD::TransactionImpl::JournalEntry"* %1, %2, !dbg !20228
  br i1 %cmp4, label %for.body, label %for.cond.cleanup, !dbg !20229

for.cond.cleanup:                                 ; preds = %for.body, %entry
  call void @llvm.dbg.value(metadata i8 undef, metadata !20105, metadata !DIExpression()) #14, !dbg !20230
  call void @llvm.dbg.value(metadata %"class.PMGD::TransactionImpl"* %this, metadata !20108, metadata !DIExpression(DW_OP_plus_uconst, 144, DW_OP_stack_value)) #14, !dbg !20232
  tail call void asm sideeffect "sfence", "~{memory},~{dirflag},~{fpsr},~{flags}"() #14, !dbg !20233, !srcloc !20115
  ret void, !dbg !20235

for.body:                                         ; preds = %entry, %for.body
  %je.05 = phi %"struct.PMGD::TransactionImpl::JournalEntry"* [ %incdec.ptr, %for.body ], [ %1, %entry ]
  call void @llvm.dbg.value(metadata %"struct.PMGD::TransactionImpl::JournalEntry"* %je.05, metadata !20214, metadata !DIExpression()), !dbg !20225
  %addr = getelementptr inbounds %"struct.PMGD::TransactionImpl::JournalEntry", %"struct.PMGD::TransactionImpl::JournalEntry"* %je.05, i64 0, i32 1, !dbg !20236
  %3 = load i8*, i8** %addr, align 8, !dbg !20236
  call void @llvm.dbg.value(metadata i8* %3, metadata !20085, metadata !DIExpression()) #14, !dbg !20237
  call void @llvm.dbg.value(metadata i8 undef, metadata !20088, metadata !DIExpression()) #14, !dbg !20239
  call void @llvm.dbg.value(metadata %"class.PMGD::TransactionImpl"* %this, metadata !20089, metadata !DIExpression(DW_OP_plus_uconst, 144, DW_OP_stack_value)) #14, !dbg !20240
  call void @llvm.dbg.value(metadata i8* %3, metadata !20094, metadata !DIExpression()) #14, !dbg !20241
  %4 = ptrtoint i8* %3 to i64, !dbg !20243
  %and.i.i = and i64 %4, -64, !dbg !20244
  %5 = inttoptr i64 %and.i.i to [64 x i8]*, !dbg !20245
  tail call void asm sideeffect "clflushopt $0", "*m,*m,~{dirflag},~{fpsr},~{flags}"(i8* %3, [64 x i8]* %5) #14, !dbg !20246, !srcloc !20103
  %incdec.ptr = getelementptr inbounds %"struct.PMGD::TransactionImpl::JournalEntry", %"struct.PMGD::TransactionImpl::JournalEntry"* %je.05, i64 1, !dbg !20247
  call void @llvm.dbg.value(metadata %"struct.PMGD::TransactionImpl::JournalEntry"* %incdec.ptr, metadata !20214, metadata !DIExpression()), !dbg !20225
  %6 = load %"struct.PMGD::TransactionImpl::JournalEntry"*, %"struct.PMGD::TransactionImpl::JournalEntry"** %_jcur, align 8, !dbg !20226
  %cmp = icmp ult %"struct.PMGD::TransactionImpl::JournalEntry"* %incdec.ptr, %6, !dbg !20228
  br i1 %cmp, label %for.body, label %for.cond.cleanup, !dbg !20229, !llvm.loop !20248
}

; Function Attrs: norecurse
define weak_odr hidden %"class.PMGD::TransactionImpl"** @_ZTWN4PMGD15TransactionImpl14_per_thread_txE() local_unnamed_addr #8 {
  ret %"class.PMGD::TransactionImpl"** @_ZN4PMGD15TransactionImpl14_per_thread_txE
}

; Function Attrs: nobuiltin nounwind
declare void @_ZdlPv(i8*) local_unnamed_addr #9

; Function Attrs: uwtable
define void @_ZN4PMGD11TransactionC2ERNS_5GraphEi(%"class.PMGD::Transaction"* nocapture %this, %"class.PMGD::Graph"* nocapture readonly dereferenceable(8) %db, i32 %options) unnamed_addr #6 align 2 personality i8* bitcast (i32 (...)* @__gxx_personality_v0 to i8*) !dbg !20250 {
entry:
  call void @llvm.dbg.value(metadata %"class.PMGD::Transaction"* %this, metadata !20252, metadata !DIExpression()), !dbg !20256
  call void @llvm.dbg.value(metadata %"class.PMGD::Graph"* %db, metadata !20254, metadata !DIExpression()), !dbg !20257
  call void @llvm.dbg.value(metadata i32 %options, metadata !20255, metadata !DIExpression()), !dbg !20258
  %call = tail call i8* @_Znwm(i64 456) #17, !dbg !20259
  %0 = bitcast i8* %call to %"class.PMGD::TransactionImpl"*, !dbg !20259
  %_impl2 = getelementptr inbounds %"class.PMGD::Graph", %"class.PMGD::Graph"* %db, i64 0, i32 0, !dbg !20260
  %1 = load %"class.PMGD::GraphImpl"*, %"class.PMGD::GraphImpl"** %_impl2, align 8, !dbg !20260
  invoke void @_ZN4PMGD15TransactionImplC2EPNS_9GraphImplEi(%"class.PMGD::TransactionImpl"* nonnull %0, %"class.PMGD::GraphImpl"* %1, i32 %options)
          to label %invoke.cont unwind label %lpad, !dbg !20261

invoke.cont:                                      ; preds = %entry
  %2 = bitcast %"class.PMGD::Transaction"* %this to i8**, !dbg !20262
  store i8* %call, i8** %2, align 8, !dbg !20262
  ret void, !dbg !20263

lpad:                                             ; preds = %entry
  %3 = landingpad { i8*, i32 }
          cleanup, !dbg !20263
  tail call void @_ZdlPv(i8* nonnull %call) #18, !dbg !20259
  resume { i8*, i32 } %3, !dbg !20259
}

; Function Attrs: nounwind uwtable
define void @_ZN4PMGD11TransactionD2Ev(%"class.PMGD::Transaction"* nocapture readonly %this) unnamed_addr #7 align 2 !dbg !20264 {
entry:
  call void @llvm.dbg.value(metadata %"class.PMGD::Transaction"* %this, metadata !20266, metadata !DIExpression()), !dbg !20267
  %_impl = getelementptr inbounds %"class.PMGD::Transaction", %"class.PMGD::Transaction"* %this, i64 0, i32 0, !dbg !20268
  %0 = load %"class.PMGD::TransactionImpl"*, %"class.PMGD::TransactionImpl"** %_impl, align 8, !dbg !20268
  %isnull = icmp eq %"class.PMGD::TransactionImpl"* %0, null, !dbg !20270
  br i1 %isnull, label %delete.end, label %delete.notnull, !dbg !20270

delete.notnull:                                   ; preds = %entry
  tail call void @_ZN4PMGD15TransactionImplD2Ev(%"class.PMGD::TransactionImpl"* nonnull %0) #14, !dbg !20270
  %1 = bitcast %"class.PMGD::TransactionImpl"* %0 to i8*, !dbg !20270
  tail call void @_ZdlPv(i8* %1) #18, !dbg !20270
  br label %delete.end, !dbg !20270

delete.end:                                       ; preds = %delete.notnull, %entry
  ret void, !dbg !20271
}

; Function Attrs: uwtable
define void @_ZN4PMGD11Transaction6commitEv(%"class.PMGD::Transaction"* nocapture %this) local_unnamed_addr #6 align 2 !dbg !20272 {
entry:
  call void @llvm.dbg.value(metadata %"class.PMGD::Transaction"* %this, metadata !20274, metadata !DIExpression()), !dbg !20275
  %_impl = getelementptr inbounds %"class.PMGD::Transaction", %"class.PMGD::Transaction"* %this, i64 0, i32 0, !dbg !20276
  %0 = load %"class.PMGD::TransactionImpl"*, %"class.PMGD::TransactionImpl"** %_impl, align 8, !dbg !20276
  call void @llvm.dbg.value(metadata %"class.PMGD::TransactionImpl"* %0, metadata !20277, metadata !DIExpression()), !dbg !20280
  %_tx_type.i = getelementptr inbounds %"class.PMGD::TransactionImpl", %"class.PMGD::TransactionImpl"* %0, i64 0, i32 1, !dbg !20282
  %1 = load i32, i32* %_tx_type.i, align 8, !dbg !20282
  %and.i = and i32 %1, 2, !dbg !20284
  %tobool.i = icmp eq i32 %and.i, 0, !dbg !20282
  br i1 %tobool.i, label %_ZN4PMGD15TransactionImpl6commitEv.exit, label %if.then.i, !dbg !20285

if.then.i:                                        ; preds = %entry
  call void @llvm.dbg.value(metadata %"class.PMGD::TransactionImpl"* %0, metadata !20213, metadata !DIExpression()), !dbg !20286
  %_commit_callback_list.i.i = getelementptr inbounds %"class.PMGD::TransactionImpl", %"class.PMGD::TransactionImpl"* %0, i64 0, i32 6, !dbg !20289
  tail call void @_ZNK4PMGD12CallbackListIPvPNS_15TransactionImplEE12do_callbacksES3_(%"class.PMGD::CallbackList.138"* nonnull %_commit_callback_list.i.i, %"class.PMGD::TransactionImpl"* nonnull %0), !dbg !20290
  call void @llvm.dbg.value(metadata %"class.PMGD::TransactionImpl"* %0, metadata !20219, metadata !DIExpression()), !dbg !20291
  %jbegin.i.i.i = getelementptr inbounds %"class.PMGD::TransactionImpl", %"class.PMGD::TransactionImpl"* %0, i64 0, i32 3, i32 2, !dbg !20293
  %2 = bitcast i8** %jbegin.i.i.i to %"struct.PMGD::TransactionImpl::JournalEntry"**, !dbg !20293
  %3 = load %"struct.PMGD::TransactionImpl::JournalEntry"*, %"struct.PMGD::TransactionImpl::JournalEntry"** %2, align 8, !dbg !20293
  call void @llvm.dbg.value(metadata %"struct.PMGD::TransactionImpl::JournalEntry"* %3, metadata !20214, metadata !DIExpression()), !dbg !20294
  %_jcur.i.i = getelementptr inbounds %"class.PMGD::TransactionImpl", %"class.PMGD::TransactionImpl"* %0, i64 0, i32 4, !dbg !20295
  %4 = load %"struct.PMGD::TransactionImpl::JournalEntry"*, %"struct.PMGD::TransactionImpl::JournalEntry"** %_jcur.i.i, align 8, !dbg !20295
  %cmp4.i.i = icmp ult %"struct.PMGD::TransactionImpl::JournalEntry"* %3, %4, !dbg !20296
  br i1 %cmp4.i.i, label %for.body.i.i, label %_ZN4PMGD15TransactionImpl15finalize_commitEv.exit.i, !dbg !20297

for.body.i.i:                                     ; preds = %if.then.i, %for.body.i.i
  %je.05.i.i = phi %"struct.PMGD::TransactionImpl::JournalEntry"* [ %incdec.ptr.i.i, %for.body.i.i ], [ %3, %if.then.i ]
  call void @llvm.dbg.value(metadata %"struct.PMGD::TransactionImpl::JournalEntry"* %je.05.i.i, metadata !20214, metadata !DIExpression()), !dbg !20294
  %addr.i.i = getelementptr inbounds %"struct.PMGD::TransactionImpl::JournalEntry", %"struct.PMGD::TransactionImpl::JournalEntry"* %je.05.i.i, i64 0, i32 1, !dbg !20298
  %5 = load i8*, i8** %addr.i.i, align 8, !dbg !20298
  call void @llvm.dbg.value(metadata i8* %5, metadata !20085, metadata !DIExpression()) #14, !dbg !20299
  call void @llvm.dbg.value(metadata i8 undef, metadata !20088, metadata !DIExpression()) #14, !dbg !20301
  call void @llvm.dbg.value(metadata %"class.PMGD::TransactionImpl"* %0, metadata !20089, metadata !DIExpression(DW_OP_plus_uconst, 144, DW_OP_stack_value)) #14, !dbg !20302
  call void @llvm.dbg.value(metadata i8* %5, metadata !20094, metadata !DIExpression()) #14, !dbg !20303
  %6 = ptrtoint i8* %5 to i64, !dbg !20305
  %and.i.i.i.i = and i64 %6, -64, !dbg !20306
  %7 = inttoptr i64 %and.i.i.i.i to [64 x i8]*, !dbg !20307
  tail call void asm sideeffect "clflushopt $0", "*m,*m,~{dirflag},~{fpsr},~{flags}"(i8* %5, [64 x i8]* %7) #14, !dbg !20308, !srcloc !20103
  %incdec.ptr.i.i = getelementptr inbounds %"struct.PMGD::TransactionImpl::JournalEntry", %"struct.PMGD::TransactionImpl::JournalEntry"* %je.05.i.i, i64 1, !dbg !20309
  call void @llvm.dbg.value(metadata %"struct.PMGD::TransactionImpl::JournalEntry"* %incdec.ptr.i.i, metadata !20214, metadata !DIExpression()), !dbg !20294
  %8 = load %"struct.PMGD::TransactionImpl::JournalEntry"*, %"struct.PMGD::TransactionImpl::JournalEntry"** %_jcur.i.i, align 8, !dbg !20295
  %cmp.i.i = icmp ult %"struct.PMGD::TransactionImpl::JournalEntry"* %incdec.ptr.i.i, %8, !dbg !20296
  br i1 %cmp.i.i, label %for.body.i.i, label %_ZN4PMGD15TransactionImpl15finalize_commitEv.exit.i, !dbg !20297, !llvm.loop !20248

_ZN4PMGD15TransactionImpl15finalize_commitEv.exit.i: ; preds = %for.body.i.i, %if.then.i
  call void @llvm.dbg.value(metadata i8 undef, metadata !20105, metadata !DIExpression()) #14, !dbg !20310
  call void @llvm.dbg.value(metadata %"class.PMGD::TransactionImpl"* %0, metadata !20108, metadata !DIExpression(DW_OP_plus_uconst, 144, DW_OP_stack_value)) #14, !dbg !20312
  tail call void asm sideeffect "sfence", "~{memory},~{dirflag},~{fpsr},~{flags}"() #14, !dbg !20313, !srcloc !20115
  br label %_ZN4PMGD15TransactionImpl6commitEv.exit, !dbg !20315

_ZN4PMGD15TransactionImpl6commitEv.exit:          ; preds = %entry, %_ZN4PMGD15TransactionImpl15finalize_commitEv.exit.i
  %_committed.i = getelementptr inbounds %"class.PMGD::TransactionImpl", %"class.PMGD::TransactionImpl"* %0, i64 0, i32 2, !dbg !20316
  store i8 1, i8* %_committed.i, align 4, !dbg !20317
  %9 = load %"class.PMGD::TransactionImpl"*, %"class.PMGD::TransactionImpl"** %_impl, align 8, !dbg !20318
  %isnull = icmp eq %"class.PMGD::TransactionImpl"* %9, null, !dbg !20319
  br i1 %isnull, label %delete.end, label %delete.notnull, !dbg !20319

delete.notnull:                                   ; preds = %_ZN4PMGD15TransactionImpl6commitEv.exit
  tail call void @_ZN4PMGD15TransactionImplD2Ev(%"class.PMGD::TransactionImpl"* nonnull %9) #14, !dbg !20319
  %10 = bitcast %"class.PMGD::TransactionImpl"* %9 to i8*, !dbg !20319
  tail call void @_ZdlPv(i8* %10) #18, !dbg !20319
  br label %delete.end, !dbg !20319

delete.end:                                       ; preds = %delete.notnull, %_ZN4PMGD15TransactionImpl6commitEv.exit
  store %"class.PMGD::TransactionImpl"* null, %"class.PMGD::TransactionImpl"** %_impl, align 8, !dbg !20320
  ret void, !dbg !20321
}

; Function Attrs: uwtable
define void @_ZN4PMGD15TransactionImplC2EPNS_9GraphImplEi(%"class.PMGD::TransactionImpl"* %this, %"class.PMGD::GraphImpl"* %db, i32 %options) unnamed_addr #10 align 2 personality i8* bitcast (i32 (...)* @__gxx_personality_v0 to i8*) !dbg !20322 {
entry:
  %ref.tmp = alloca %"struct.PMGD::TransactionHandle", align 8
  call void @llvm.dbg.value(metadata %"class.PMGD::TransactionImpl"* %this, metadata !20324, metadata !DIExpression()), !dbg !20329
  call void @llvm.dbg.value(metadata %"class.PMGD::GraphImpl"* %db, metadata !20325, metadata !DIExpression()), !dbg !20330
  call void @llvm.dbg.value(metadata i32 %options, metadata !20326, metadata !DIExpression()), !dbg !20331
  %_db = getelementptr inbounds %"class.PMGD::TransactionImpl", %"class.PMGD::TransactionImpl"* %this, i64 0, i32 0, !dbg !20332
  store %"class.PMGD::GraphImpl"* %db, %"class.PMGD::GraphImpl"** %_db, align 8, !dbg !20332
  %_tx_type = getelementptr inbounds %"class.PMGD::TransactionImpl", %"class.PMGD::TransactionImpl"* %this, i64 0, i32 1, !dbg !20333
  store i32 %options, i32* %_tx_type, align 8, !dbg !20333
  %_committed = getelementptr inbounds %"class.PMGD::TransactionImpl", %"class.PMGD::TransactionImpl"* %this, i64 0, i32 2, !dbg !20334
  store i8 0, i8* %_committed, align 4, !dbg !20334
  %_tx_handle = getelementptr inbounds %"class.PMGD::TransactionImpl", %"class.PMGD::TransactionImpl"* %this, i64 0, i32 3, !dbg !20335
  call void @llvm.dbg.value(metadata %"struct.PMGD::TransactionHandle"* %_tx_handle, metadata !20336, metadata !DIExpression()) #14, !dbg !20340
  %id.i = getelementptr inbounds %"struct.PMGD::TransactionHandle", %"struct.PMGD::TransactionHandle"* %_tx_handle, i64 0, i32 0, !dbg !20342
  store i64 -1, i64* %id.i, align 8, !dbg !20342
  %index.i = getelementptr inbounds %"class.PMGD::TransactionImpl", %"class.PMGD::TransactionImpl"* %this, i64 0, i32 3, i32 1, !dbg !20343
  store i32 -1, i32* %index.i, align 8, !dbg !20343
  %jbegin.i = getelementptr inbounds %"class.PMGD::TransactionImpl", %"class.PMGD::TransactionImpl"* %this, i64 0, i32 3, i32 2, !dbg !20344
  %0 = bitcast i8** %jbegin.i to i8*, !dbg !20345
  tail call void @llvm.memset.p0i8.i64(i8* nonnull align 8 %0, i8 0, i64 16, i1 false) #14, !dbg !20346
  %_commit_callback_list = getelementptr inbounds %"class.PMGD::TransactionImpl", %"class.PMGD::TransactionImpl"* %this, i64 0, i32 6, !dbg !20335
  call void @llvm.dbg.value(metadata %"class.PMGD::CallbackList.138"* %_commit_callback_list, metadata !20347, metadata !DIExpression()), !dbg !20353
  call void @llvm.dbg.value(metadata %"class.PMGD::CallbackList.138"* %_commit_callback_list, metadata !20355, metadata !DIExpression()), !dbg !20359
  call void @llvm.dbg.value(metadata %"class.PMGD::CallbackList.138"* %_commit_callback_list, metadata !20361, metadata !DIExpression()), !dbg !20364
  call void @llvm.dbg.value(metadata %"class.PMGD::CallbackList.138"* %_commit_callback_list, metadata !20366, metadata !DIExpression()), !dbg !20369
  %1 = getelementptr inbounds %"class.PMGD::CallbackList.138", %"class.PMGD::CallbackList.138"* %_commit_callback_list, i64 0, i32 0, i32 0, i32 0, i32 0, i32 0, !dbg !20372
  %_M_next.i.i.i.i = getelementptr inbounds %"class.PMGD::CallbackList.138", %"class.PMGD::CallbackList.138"* %_commit_callback_list, i64 0, i32 0, i32 0, i32 0, i32 0, i32 0, i32 0, !dbg !20373
  store %"struct.std::__detail::_List_node_base"* %1, %"struct.std::__detail::_List_node_base"** %_M_next.i.i.i.i, align 8, !dbg !20374
  %_M_prev.i.i.i.i = getelementptr inbounds %"class.PMGD::TransactionImpl", %"class.PMGD::TransactionImpl"* %this, i64 0, i32 6, i32 0, i32 0, i32 0, i32 0, i32 0, i32 1, !dbg !20375
  store %"struct.std::__detail::_List_node_base"* %1, %"struct.std::__detail::_List_node_base"** %_M_prev.i.i.i.i, align 8, !dbg !20376
  call void @llvm.dbg.value(metadata %"class.PMGD::CallbackList.138"* %_commit_callback_list, metadata !20377, metadata !DIExpression()), !dbg !20381
  call void @llvm.dbg.value(metadata i64 0, metadata !20380, metadata !DIExpression()), !dbg !20383
  call void @llvm.dbg.value(metadata %"class.PMGD::CallbackList.138"* %_commit_callback_list, metadata !20384, metadata !DIExpression()), !dbg !20387
  %_M_storage.i.i.i.i.i.i = getelementptr inbounds %"class.PMGD::TransactionImpl", %"class.PMGD::TransactionImpl"* %this, i64 0, i32 6, i32 0, i32 0, i32 0, i32 0, i32 1, !dbg !20389
  call void @llvm.dbg.value(metadata %"struct.__gnu_cxx::__aligned_membuf"* %_M_storage.i.i.i.i.i.i, metadata !20390, metadata !DIExpression()), !dbg !20394
  %2 = bitcast %"struct.__gnu_cxx::__aligned_membuf"* %_M_storage.i.i.i.i.i.i to i64*, !dbg !20396
  store i64 0, i64* %2, align 8, !dbg !20397
  %_abort_callback_list = getelementptr inbounds %"class.PMGD::TransactionImpl", %"class.PMGD::TransactionImpl"* %this, i64 0, i32 7, !dbg !20335
  call void @llvm.dbg.value(metadata %"class.PMGD::CallbackList.138"* %_abort_callback_list, metadata !20347, metadata !DIExpression()), !dbg !20398
  call void @llvm.dbg.value(metadata %"class.PMGD::CallbackList.138"* %_abort_callback_list, metadata !20355, metadata !DIExpression()), !dbg !20400
  call void @llvm.dbg.value(metadata %"class.PMGD::CallbackList.138"* %_abort_callback_list, metadata !20361, metadata !DIExpression()), !dbg !20402
  call void @llvm.dbg.value(metadata %"class.PMGD::CallbackList.138"* %_abort_callback_list, metadata !20366, metadata !DIExpression()), !dbg !20404
  %3 = getelementptr inbounds %"class.PMGD::CallbackList.138", %"class.PMGD::CallbackList.138"* %_abort_callback_list, i64 0, i32 0, i32 0, i32 0, i32 0, i32 0, !dbg !20406
  %_M_next.i.i.i.i9 = getelementptr inbounds %"class.PMGD::CallbackList.138", %"class.PMGD::CallbackList.138"* %_abort_callback_list, i64 0, i32 0, i32 0, i32 0, i32 0, i32 0, i32 0, !dbg !20407
  store %"struct.std::__detail::_List_node_base"* %3, %"struct.std::__detail::_List_node_base"** %_M_next.i.i.i.i9, align 8, !dbg !20408
  %_M_prev.i.i.i.i10 = getelementptr inbounds %"class.PMGD::TransactionImpl", %"class.PMGD::TransactionImpl"* %this, i64 0, i32 7, i32 0, i32 0, i32 0, i32 0, i32 0, i32 1, !dbg !20409
  store %"struct.std::__detail::_List_node_base"* %3, %"struct.std::__detail::_List_node_base"** %_M_prev.i.i.i.i10, align 8, !dbg !20410
  call void @llvm.dbg.value(metadata %"class.PMGD::CallbackList.138"* %_abort_callback_list, metadata !20377, metadata !DIExpression()), !dbg !20411
  call void @llvm.dbg.value(metadata i64 0, metadata !20380, metadata !DIExpression()), !dbg !20413
  call void @llvm.dbg.value(metadata %"class.PMGD::CallbackList.138"* %_abort_callback_list, metadata !20384, metadata !DIExpression()), !dbg !20414
  %_M_storage.i.i.i.i.i.i11 = getelementptr inbounds %"class.PMGD::TransactionImpl", %"class.PMGD::TransactionImpl"* %this, i64 0, i32 7, i32 0, i32 0, i32 0, i32 0, i32 1, !dbg !20416
  call void @llvm.dbg.value(metadata %"struct.__gnu_cxx::__aligned_membuf"* %_M_storage.i.i.i.i.i.i11, metadata !20390, metadata !DIExpression()), !dbg !20417
  %4 = bitcast %"struct.__gnu_cxx::__aligned_membuf"* %_M_storage.i.i.i.i.i.i11 to i64*, !dbg !20419
  store i64 0, i64* %4, align 8, !dbg !20420
  %_finalize_callback_list = getelementptr inbounds %"class.PMGD::TransactionImpl", %"class.PMGD::TransactionImpl"* %this, i64 0, i32 8, !dbg !20335
  call void @llvm.dbg.value(metadata %"class.PMGD::CallbackList.138"* %_finalize_callback_list, metadata !20347, metadata !DIExpression()), !dbg !20421
  call void @llvm.dbg.value(metadata %"class.PMGD::CallbackList.138"* %_finalize_callback_list, metadata !20355, metadata !DIExpression()), !dbg !20423
  call void @llvm.dbg.value(metadata %"class.PMGD::CallbackList.138"* %_finalize_callback_list, metadata !20361, metadata !DIExpression()), !dbg !20425
  call void @llvm.dbg.value(metadata %"class.PMGD::CallbackList.138"* %_finalize_callback_list, metadata !20366, metadata !DIExpression()), !dbg !20427
  %5 = getelementptr inbounds %"class.PMGD::CallbackList.138", %"class.PMGD::CallbackList.138"* %_finalize_callback_list, i64 0, i32 0, i32 0, i32 0, i32 0, i32 0, !dbg !20429
  %_M_next.i.i.i.i12 = getelementptr inbounds %"class.PMGD::CallbackList.138", %"class.PMGD::CallbackList.138"* %_finalize_callback_list, i64 0, i32 0, i32 0, i32 0, i32 0, i32 0, i32 0, !dbg !20430
  store %"struct.std::__detail::_List_node_base"* %5, %"struct.std::__detail::_List_node_base"** %_M_next.i.i.i.i12, align 8, !dbg !20431
  %_M_prev.i.i.i.i13 = getelementptr inbounds %"class.PMGD::TransactionImpl", %"class.PMGD::TransactionImpl"* %this, i64 0, i32 8, i32 0, i32 0, i32 0, i32 0, i32 0, i32 1, !dbg !20432
  store %"struct.std::__detail::_List_node_base"* %5, %"struct.std::__detail::_List_node_base"** %_M_prev.i.i.i.i13, align 8, !dbg !20433
  call void @llvm.dbg.value(metadata %"class.PMGD::CallbackList.138"* %_finalize_callback_list, metadata !20377, metadata !DIExpression()), !dbg !20434
  call void @llvm.dbg.value(metadata i64 0, metadata !20380, metadata !DIExpression()), !dbg !20436
  call void @llvm.dbg.value(metadata %"class.PMGD::CallbackList.138"* %_finalize_callback_list, metadata !20384, metadata !DIExpression()), !dbg !20437
  %_M_storage.i.i.i.i.i.i14 = getelementptr inbounds %"class.PMGD::TransactionImpl", %"class.PMGD::TransactionImpl"* %this, i64 0, i32 8, i32 0, i32 0, i32 0, i32 0, i32 1, !dbg !20439
  call void @llvm.dbg.value(metadata %"struct.__gnu_cxx::__aligned_membuf"* %_M_storage.i.i.i.i.i.i14, metadata !20390, metadata !DIExpression()), !dbg !20440
  %6 = bitcast %"struct.__gnu_cxx::__aligned_membuf"* %_M_storage.i.i.i.i.i.i14 to i64*, !dbg !20442
  store i64 0, i64* %6, align 8, !dbg !20443
  %_pending_commits = getelementptr inbounds %"class.PMGD::TransactionImpl", %"class.PMGD::TransactionImpl"* %this, i64 0, i32 12, !dbg !20335
  call void @llvm.dbg.value(metadata %"class.PMGD::RangeSet"* %_pending_commits, metadata !20444, metadata !DIExpression()) #14, !dbg !20448
  call void @llvm.dbg.value(metadata %"class.PMGD::RangeSet"* %_pending_commits, metadata !20450, metadata !DIExpression()) #14, !dbg !20454
  call void @llvm.dbg.value(metadata %"class.PMGD::RangeSet"* %_pending_commits, metadata !20456, metadata !DIExpression()) #14, !dbg !20460
  call void @llvm.dbg.value(metadata %"class.PMGD::RangeSet"* %_pending_commits, metadata !20462, metadata !DIExpression()) #14, !dbg !20466
  %_M_header.i.i.i.i = getelementptr inbounds %"class.PMGD::TransactionImpl", %"class.PMGD::TransactionImpl"* %this, i64 0, i32 12, i32 0, i32 0, i32 0, i32 1, !dbg !20468
  call void @llvm.dbg.value(metadata %"class.PMGD::RangeSet"* %_pending_commits, metadata !20469, metadata !DIExpression()) #14, !dbg !20472
  %_M_left.i.i.i.i.i = getelementptr inbounds %"class.PMGD::TransactionImpl", %"class.PMGD::TransactionImpl"* %this, i64 0, i32 12, i32 0, i32 0, i32 0, i32 1, i32 2, !dbg !20475
  %7 = bitcast %"struct.std::_Rb_tree_node_base"* %_M_header.i.i.i.i to i8*, !dbg !20476
  tail call void @llvm.memset.p0i8.i64(i8* nonnull align 8 %7, i8 0, i64 40, i1 false) #14, !dbg !20477
  store %"struct.std::_Rb_tree_node_base"* %_M_header.i.i.i.i, %"struct.std::_Rb_tree_node_base"** %_M_left.i.i.i.i.i, align 8, !dbg !20476
  %_M_right.i.i.i.i.i = getelementptr inbounds %"class.PMGD::TransactionImpl", %"class.PMGD::TransactionImpl"* %this, i64 0, i32 12, i32 0, i32 0, i32 0, i32 1, i32 3, !dbg !20478
  store %"struct.std::_Rb_tree_node_base"* %_M_header.i.i.i.i, %"struct.std::_Rb_tree_node_base"** %_M_right.i.i.i.i.i, align 8, !dbg !20479
  %_locks = getelementptr inbounds %"class.PMGD::TransactionImpl", %"class.PMGD::TransactionImpl"* %this, i64 0, i32 13, !dbg !20480
  call void @llvm.dbg.value(metadata %"class.PMGD::GraphImpl"* %db, metadata !20481, metadata !DIExpression()), !dbg !20484
  %_node_locks.i = getelementptr inbounds %"class.PMGD::GraphImpl", %"class.PMGD::GraphImpl"* %db, i64 0, i32 16, !dbg !20486
  call void @llvm.dbg.value(metadata %"struct.std::array"* %_locks, metadata !20487, metadata !DIExpression()) #14, !dbg !20491
  call void @llvm.dbg.value(metadata %"class.PMGD::StripedLock"* %_node_locks.i, metadata !20490, metadata !DIExpression()) #14, !dbg !20493
  call void @llvm.dbg.value(metadata %"struct.std::array"* %_locks, metadata !20494, metadata !DIExpression()) #14, !dbg !20497
  call void @llvm.dbg.value(metadata %"struct.std::array"* %_locks, metadata !20499, metadata !DIExpression()) #14, !dbg !20502
  %_M_buckets.i.i.i = getelementptr inbounds %"struct.std::array", %"struct.std::array"* %_locks, i64 0, i32 0, i64 0, i32 0, i32 0, i32 0, !dbg !20504
  %_M_single_bucket.i.i.i = getelementptr inbounds %"class.PMGD::TransactionImpl", %"class.PMGD::TransactionImpl"* %this, i64 0, i32 13, i32 0, i64 0, i32 0, i32 0, i32 5, !dbg !20505
  store %"struct.std::__detail::_Hash_node_base"** %_M_single_bucket.i.i.i, %"struct.std::__detail::_Hash_node_base"*** %_M_buckets.i.i.i, align 8, !dbg !20504
  %_M_bucket_count.i.i.i = getelementptr inbounds %"class.PMGD::TransactionImpl", %"class.PMGD::TransactionImpl"* %this, i64 0, i32 13, i32 0, i64 0, i32 0, i32 0, i32 1, !dbg !20506
  store i64 1, i64* %_M_bucket_count.i.i.i, align 8, !dbg !20506
  call void @llvm.dbg.value(metadata %"struct.std::array"* %_locks, metadata !19505, metadata !DIExpression(DW_OP_plus_uconst, 16, DW_OP_stack_value)) #14, !dbg !20507
  %_M_nxt.i.i.i.i = getelementptr inbounds %"class.PMGD::TransactionImpl", %"class.PMGD::TransactionImpl"* %this, i64 0, i32 13, i32 0, i64 0, i32 0, i32 0, i32 2, i32 0, !dbg !20509
  call void @llvm.dbg.value(metadata %"struct.std::array"* %_locks, metadata !20510, metadata !DIExpression(DW_OP_plus_uconst, 32, DW_OP_stack_value)) #14, !dbg !20515
  call void @llvm.dbg.value(metadata float 1.000000e+00, metadata !20513, metadata !DIExpression()) #14, !dbg !20517
  %_M_max_load_factor.i.i.i.i = getelementptr inbounds %"class.PMGD::TransactionImpl", %"class.PMGD::TransactionImpl"* %this, i64 0, i32 13, i32 0, i64 0, i32 0, i32 0, i32 4, i32 0, !dbg !20518
  %8 = bitcast %"struct.std::__detail::_Hash_node_base"** %_M_nxt.i.i.i.i to i8*, !dbg !20518
  tail call void @llvm.memset.p0i8.i64(i8* nonnull align 8 %8, i8 0, i64 16, i1 false) #14, !dbg !20519
  store float 1.000000e+00, float* %_M_max_load_factor.i.i.i.i, align 8, !dbg !20518
  %_M_next_resize.i.i.i.i = getelementptr inbounds %"class.PMGD::TransactionImpl", %"class.PMGD::TransactionImpl"* %this, i64 0, i32 13, i32 0, i64 0, i32 0, i32 0, i32 4, i32 1, !dbg !20520
  %9 = bitcast i64* %_M_next_resize.i.i.i.i to i8*, !dbg !20521
  tail call void @llvm.memset.p0i8.i64(i8* nonnull align 8 %9, i8 0, i64 16, i1 false) #14, !dbg !20522
  %mainlock.i = getelementptr inbounds %"class.PMGD::TransactionImpl", %"class.PMGD::TransactionImpl"* %this, i64 0, i32 13, i32 0, i64 0, i32 1, !dbg !20523
  store %"class.PMGD::StripedLock"* %_node_locks.i, %"class.PMGD::StripedLock"** %mainlock.i, align 8, !dbg !20523
  call void @llvm.dbg.value(metadata %"class.PMGD::GraphImpl"* %db, metadata !20524, metadata !DIExpression()), !dbg !20527
  %_edge_locks.i = getelementptr inbounds %"class.PMGD::GraphImpl", %"class.PMGD::GraphImpl"* %db, i64 0, i32 17, !dbg !20529
  call void @llvm.dbg.value(metadata %"class.PMGD::TransactionImpl"* %this, metadata !20487, metadata !DIExpression(DW_OP_plus_uconst, 256, DW_OP_stack_value)) #14, !dbg !20530
  call void @llvm.dbg.value(metadata %"class.PMGD::StripedLock"* %_edge_locks.i, metadata !20490, metadata !DIExpression()) #14, !dbg !20532
  call void @llvm.dbg.value(metadata %"class.PMGD::TransactionImpl"* %this, metadata !20494, metadata !DIExpression(DW_OP_plus_uconst, 256, DW_OP_stack_value)) #14, !dbg !20533
  call void @llvm.dbg.value(metadata %"class.PMGD::TransactionImpl"* %this, metadata !20499, metadata !DIExpression(DW_OP_plus_uconst, 256, DW_OP_stack_value)) #14, !dbg !20535
  %_M_buckets.i.i.i43 = getelementptr inbounds %"class.PMGD::TransactionImpl", %"class.PMGD::TransactionImpl"* %this, i64 0, i32 13, i32 0, i64 1, i32 0, i32 0, i32 0, !dbg !20537
  %_M_single_bucket.i.i.i44 = getelementptr inbounds %"class.PMGD::TransactionImpl", %"class.PMGD::TransactionImpl"* %this, i64 0, i32 13, i32 0, i64 1, i32 0, i32 0, i32 5, !dbg !20538
  store %"struct.std::__detail::_Hash_node_base"** %_M_single_bucket.i.i.i44, %"struct.std::__detail::_Hash_node_base"*** %_M_buckets.i.i.i43, align 8, !dbg !20537
  %_M_bucket_count.i.i.i45 = getelementptr inbounds %"class.PMGD::TransactionImpl", %"class.PMGD::TransactionImpl"* %this, i64 0, i32 13, i32 0, i64 1, i32 0, i32 0, i32 1, !dbg !20539
  store i64 1, i64* %_M_bucket_count.i.i.i45, align 8, !dbg !20539
  call void @llvm.dbg.value(metadata %"class.PMGD::TransactionImpl"* %this, metadata !19505, metadata !DIExpression(DW_OP_plus_uconst, 256, DW_OP_plus_uconst, 16, DW_OP_stack_value)) #14, !dbg !20540
  %_M_nxt.i.i.i.i46 = getelementptr inbounds %"class.PMGD::TransactionImpl", %"class.PMGD::TransactionImpl"* %this, i64 0, i32 13, i32 0, i64 1, i32 0, i32 0, i32 2, i32 0, !dbg !20542
  call void @llvm.dbg.value(metadata %"class.PMGD::TransactionImpl"* %this, metadata !20510, metadata !DIExpression(DW_OP_plus_uconst, 256, DW_OP_plus_uconst, 32, DW_OP_stack_value)) #14, !dbg !20543
  call void @llvm.dbg.value(metadata float 1.000000e+00, metadata !20513, metadata !DIExpression()) #14, !dbg !20545
  %_M_max_load_factor.i.i.i.i47 = getelementptr inbounds %"class.PMGD::TransactionImpl", %"class.PMGD::TransactionImpl"* %this, i64 0, i32 13, i32 0, i64 1, i32 0, i32 0, i32 4, i32 0, !dbg !20546
  %10 = bitcast %"struct.std::__detail::_Hash_node_base"** %_M_nxt.i.i.i.i46 to i8*, !dbg !20546
  tail call void @llvm.memset.p0i8.i64(i8* nonnull align 8 %10, i8 0, i64 16, i1 false) #14, !dbg !20547
  store float 1.000000e+00, float* %_M_max_load_factor.i.i.i.i47, align 8, !dbg !20546
  %_M_next_resize.i.i.i.i48 = getelementptr inbounds %"class.PMGD::TransactionImpl", %"class.PMGD::TransactionImpl"* %this, i64 0, i32 13, i32 0, i64 1, i32 0, i32 0, i32 4, i32 1, !dbg !20548
  %11 = bitcast i64* %_M_next_resize.i.i.i.i48 to i8*, !dbg !20549
  tail call void @llvm.memset.p0i8.i64(i8* nonnull align 8 %11, i8 0, i64 16, i1 false) #14, !dbg !20550
  %mainlock.i49 = getelementptr inbounds %"class.PMGD::TransactionImpl", %"class.PMGD::TransactionImpl"* %this, i64 0, i32 13, i32 0, i64 1, i32 1, !dbg !20551
  store %"class.PMGD::StripedLock"* %_edge_locks.i, %"class.PMGD::StripedLock"** %mainlock.i49, align 8, !dbg !20551
  call void @llvm.dbg.value(metadata %"class.PMGD::GraphImpl"* %db, metadata !20552, metadata !DIExpression()), !dbg !20555
  %_index_locks.i = getelementptr inbounds %"class.PMGD::GraphImpl", %"class.PMGD::GraphImpl"* %db, i64 0, i32 18, !dbg !20557
  call void @llvm.dbg.value(metadata %"class.PMGD::TransactionImpl"* %this, metadata !20487, metadata !DIExpression(DW_OP_plus_uconst, 320, DW_OP_stack_value)) #14, !dbg !20558
  call void @llvm.dbg.value(metadata %"class.PMGD::StripedLock"* %_index_locks.i, metadata !20490, metadata !DIExpression()) #14, !dbg !20560
  call void @llvm.dbg.value(metadata %"class.PMGD::TransactionImpl"* %this, metadata !20494, metadata !DIExpression(DW_OP_plus_uconst, 320, DW_OP_stack_value)) #14, !dbg !20561
  call void @llvm.dbg.value(metadata %"class.PMGD::TransactionImpl"* %this, metadata !20499, metadata !DIExpression(DW_OP_plus_uconst, 320, DW_OP_stack_value)) #14, !dbg !20563
  %_M_buckets.i.i.i50 = getelementptr inbounds %"class.PMGD::TransactionImpl", %"class.PMGD::TransactionImpl"* %this, i64 0, i32 13, i32 0, i64 2, i32 0, i32 0, i32 0, !dbg !20565
  %_M_single_bucket.i.i.i51 = getelementptr inbounds %"class.PMGD::TransactionImpl", %"class.PMGD::TransactionImpl"* %this, i64 0, i32 13, i32 0, i64 2, i32 0, i32 0, i32 5, !dbg !20566
  store %"struct.std::__detail::_Hash_node_base"** %_M_single_bucket.i.i.i51, %"struct.std::__detail::_Hash_node_base"*** %_M_buckets.i.i.i50, align 8, !dbg !20565
  %_M_bucket_count.i.i.i52 = getelementptr inbounds %"class.PMGD::TransactionImpl", %"class.PMGD::TransactionImpl"* %this, i64 0, i32 13, i32 0, i64 2, i32 0, i32 0, i32 1, !dbg !20567
  store i64 1, i64* %_M_bucket_count.i.i.i52, align 8, !dbg !20567
  call void @llvm.dbg.value(metadata %"class.PMGD::TransactionImpl"* %this, metadata !19505, metadata !DIExpression(DW_OP_plus_uconst, 320, DW_OP_plus_uconst, 16, DW_OP_stack_value)) #14, !dbg !20568
  %_M_nxt.i.i.i.i53 = getelementptr inbounds %"class.PMGD::TransactionImpl", %"class.PMGD::TransactionImpl"* %this, i64 0, i32 13, i32 0, i64 2, i32 0, i32 0, i32 2, i32 0, !dbg !20570
  call void @llvm.dbg.value(metadata %"class.PMGD::TransactionImpl"* %this, metadata !20510, metadata !DIExpression(DW_OP_plus_uconst, 320, DW_OP_plus_uconst, 32, DW_OP_stack_value)) #14, !dbg !20571
  call void @llvm.dbg.value(metadata float 1.000000e+00, metadata !20513, metadata !DIExpression()) #14, !dbg !20573
  %_M_max_load_factor.i.i.i.i54 = getelementptr inbounds %"class.PMGD::TransactionImpl", %"class.PMGD::TransactionImpl"* %this, i64 0, i32 13, i32 0, i64 2, i32 0, i32 0, i32 4, i32 0, !dbg !20574
  %12 = bitcast %"struct.std::__detail::_Hash_node_base"** %_M_nxt.i.i.i.i53 to i8*, !dbg !20574
  tail call void @llvm.memset.p0i8.i64(i8* nonnull align 8 %12, i8 0, i64 16, i1 false) #14, !dbg !20575
  store float 1.000000e+00, float* %_M_max_load_factor.i.i.i.i54, align 8, !dbg !20574
  %_M_next_resize.i.i.i.i55 = getelementptr inbounds %"class.PMGD::TransactionImpl", %"class.PMGD::TransactionImpl"* %this, i64 0, i32 13, i32 0, i64 2, i32 0, i32 0, i32 4, i32 1, !dbg !20576
  %13 = bitcast i64* %_M_next_resize.i.i.i.i55 to i8*, !dbg !20577
  tail call void @llvm.memset.p0i8.i64(i8* nonnull align 8 %13, i8 0, i64 16, i1 false) #14, !dbg !20578
  %mainlock.i56 = getelementptr inbounds %"class.PMGD::TransactionImpl", %"class.PMGD::TransactionImpl"* %this, i64 0, i32 13, i32 0, i64 2, i32 1, !dbg !20579
  store %"class.PMGD::StripedLock"* %_index_locks.i, %"class.PMGD::StripedLock"** %mainlock.i56, align 8, !dbg !20579
  %_iter_callbacks = getelementptr inbounds %"class.PMGD::TransactionImpl", %"class.PMGD::TransactionImpl"* %this, i64 0, i32 14, !dbg !20335
  call void @llvm.dbg.value(metadata %"class.PMGD::TransactionImpl::IteratorCallbacks"* %_iter_callbacks, metadata !20580, metadata !DIExpression()), !dbg !20587
  call void @llvm.dbg.value(metadata %"class.PMGD::TransactionImpl::IteratorCallbacks"* %_iter_callbacks, metadata !20589, metadata !DIExpression()), !dbg !20596
  call void @llvm.dbg.value(metadata %"class.PMGD::TransactionImpl::IteratorCallbacks"* %_iter_callbacks, metadata !20598, metadata !DIExpression()), !dbg !20602
  call void @llvm.dbg.value(metadata %"class.PMGD::TransactionImpl::IteratorCallbacks"* %_iter_callbacks, metadata !20604, metadata !DIExpression()), !dbg !20607
  call void @llvm.dbg.value(metadata %"class.PMGD::TransactionImpl::IteratorCallbacks"* %_iter_callbacks, metadata !20609, metadata !DIExpression()), !dbg !20612
  %14 = getelementptr inbounds %"class.PMGD::TransactionImpl::IteratorCallbacks", %"class.PMGD::TransactionImpl::IteratorCallbacks"* %_iter_callbacks, i64 0, i32 0, i32 0, i32 0, i32 0, i32 0, i32 0, !dbg !20615
  %_M_next.i.i.i.i.i = getelementptr inbounds %"class.PMGD::TransactionImpl::IteratorCallbacks", %"class.PMGD::TransactionImpl::IteratorCallbacks"* %_iter_callbacks, i64 0, i32 0, i32 0, i32 0, i32 0, i32 0, i32 0, i32 0, !dbg !20616
  store %"struct.std::__detail::_List_node_base"* %14, %"struct.std::__detail::_List_node_base"** %_M_next.i.i.i.i.i, align 8, !dbg !20617
  %_M_prev.i.i.i.i.i = getelementptr inbounds %"class.PMGD::TransactionImpl", %"class.PMGD::TransactionImpl"* %this, i64 0, i32 14, i32 0, i32 0, i32 0, i32 0, i32 0, i32 0, i32 1, !dbg !20618
  store %"struct.std::__detail::_List_node_base"* %14, %"struct.std::__detail::_List_node_base"** %_M_prev.i.i.i.i.i, align 8, !dbg !20619
  call void @llvm.dbg.value(metadata %"class.PMGD::TransactionImpl::IteratorCallbacks"* %_iter_callbacks, metadata !20620, metadata !DIExpression()), !dbg !20624
  call void @llvm.dbg.value(metadata i64 0, metadata !20623, metadata !DIExpression()), !dbg !20626
  call void @llvm.dbg.value(metadata %"class.PMGD::TransactionImpl::IteratorCallbacks"* %_iter_callbacks, metadata !20384, metadata !DIExpression()), !dbg !20627
  %_M_storage.i.i.i.i.i.i.i = getelementptr inbounds %"class.PMGD::TransactionImpl", %"class.PMGD::TransactionImpl"* %this, i64 0, i32 14, i32 0, i32 0, i32 0, i32 0, i32 0, i32 1, !dbg !20629
  call void @llvm.dbg.value(metadata %"struct.__gnu_cxx::__aligned_membuf"* %_M_storage.i.i.i.i.i.i.i, metadata !20390, metadata !DIExpression()), !dbg !20630
  %15 = bitcast %"struct.__gnu_cxx::__aligned_membuf"* %_M_storage.i.i.i.i.i.i.i to i64*, !dbg !20632
  store i64 0, i64* %15, align 8, !dbg !20633
  %_iterator_rebalance_list.i = getelementptr inbounds %"class.PMGD::TransactionImpl", %"class.PMGD::TransactionImpl"* %this, i64 0, i32 14, i32 1, !dbg !20634
  call void @llvm.dbg.value(metadata %"class.PMGD::CallbackList.114"* %_iterator_rebalance_list.i, metadata !20589, metadata !DIExpression()), !dbg !20635
  call void @llvm.dbg.value(metadata %"class.PMGD::CallbackList.114"* %_iterator_rebalance_list.i, metadata !20598, metadata !DIExpression()), !dbg !20637
  call void @llvm.dbg.value(metadata %"class.PMGD::CallbackList.114"* %_iterator_rebalance_list.i, metadata !20604, metadata !DIExpression()), !dbg !20639
  call void @llvm.dbg.value(metadata %"class.PMGD::CallbackList.114"* %_iterator_rebalance_list.i, metadata !20609, metadata !DIExpression()), !dbg !20641
  %16 = getelementptr inbounds %"class.PMGD::CallbackList.114", %"class.PMGD::CallbackList.114"* %_iterator_rebalance_list.i, i64 0, i32 0, i32 0, i32 0, i32 0, i32 0, !dbg !20643
  %_M_next.i.i.i.i4.i = getelementptr inbounds %"class.PMGD::CallbackList.114", %"class.PMGD::CallbackList.114"* %_iterator_rebalance_list.i, i64 0, i32 0, i32 0, i32 0, i32 0, i32 0, i32 0, !dbg !20644
  store %"struct.std::__detail::_List_node_base"* %16, %"struct.std::__detail::_List_node_base"** %_M_next.i.i.i.i4.i, align 8, !dbg !20645
  %_M_prev.i.i.i.i5.i = getelementptr inbounds %"class.PMGD::TransactionImpl", %"class.PMGD::TransactionImpl"* %this, i64 0, i32 14, i32 1, i32 0, i32 0, i32 0, i32 0, i32 0, i32 1, !dbg !20646
  store %"struct.std::__detail::_List_node_base"* %16, %"struct.std::__detail::_List_node_base"** %_M_prev.i.i.i.i5.i, align 8, !dbg !20647
  call void @llvm.dbg.value(metadata %"class.PMGD::CallbackList.114"* %_iterator_rebalance_list.i, metadata !20620, metadata !DIExpression()), !dbg !20648
  call void @llvm.dbg.value(metadata i64 0, metadata !20623, metadata !DIExpression()), !dbg !20650
  call void @llvm.dbg.value(metadata %"class.PMGD::CallbackList.114"* %_iterator_rebalance_list.i, metadata !20384, metadata !DIExpression()), !dbg !20651
  %_M_storage.i.i.i.i.i.i6.i = getelementptr inbounds %"class.PMGD::TransactionImpl", %"class.PMGD::TransactionImpl"* %this, i64 0, i32 14, i32 1, i32 0, i32 0, i32 0, i32 0, i32 1, !dbg !20653
  call void @llvm.dbg.value(metadata %"struct.__gnu_cxx::__aligned_membuf"* %_M_storage.i.i.i.i.i.i6.i, metadata !20390, metadata !DIExpression()), !dbg !20654
  %17 = bitcast %"struct.__gnu_cxx::__aligned_membuf"* %_M_storage.i.i.i.i.i.i6.i to i64*, !dbg !20656
  store i64 0, i64* %17, align 8, !dbg !20657
  %_property_iterator_list.i = getelementptr inbounds %"class.PMGD::TransactionImpl", %"class.PMGD::TransactionImpl"* %this, i64 0, i32 14, i32 2, !dbg !20634
  call void @llvm.dbg.value(metadata %"class.PMGD::CallbackList.120"* %_property_iterator_list.i, metadata !20658, metadata !DIExpression()), !dbg !20665
  call void @llvm.dbg.value(metadata %"class.PMGD::CallbackList.120"* %_property_iterator_list.i, metadata !20667, metadata !DIExpression()), !dbg !20671
  call void @llvm.dbg.value(metadata %"class.PMGD::CallbackList.120"* %_property_iterator_list.i, metadata !20673, metadata !DIExpression()), !dbg !20676
  call void @llvm.dbg.value(metadata %"class.PMGD::CallbackList.120"* %_property_iterator_list.i, metadata !20678, metadata !DIExpression()), !dbg !20681
  %18 = getelementptr inbounds %"class.PMGD::CallbackList.120", %"class.PMGD::CallbackList.120"* %_property_iterator_list.i, i64 0, i32 0, i32 0, i32 0, i32 0, i32 0, !dbg !20684
  %_M_next.i.i.i.i1.i = getelementptr inbounds %"class.PMGD::CallbackList.120", %"class.PMGD::CallbackList.120"* %_property_iterator_list.i, i64 0, i32 0, i32 0, i32 0, i32 0, i32 0, i32 0, !dbg !20685
  store %"struct.std::__detail::_List_node_base"* %18, %"struct.std::__detail::_List_node_base"** %_M_next.i.i.i.i1.i, align 8, !dbg !20686
  %_M_prev.i.i.i.i2.i = getelementptr inbounds %"class.PMGD::TransactionImpl", %"class.PMGD::TransactionImpl"* %this, i64 0, i32 14, i32 2, i32 0, i32 0, i32 0, i32 0, i32 0, i32 1, !dbg !20687
  store %"struct.std::__detail::_List_node_base"* %18, %"struct.std::__detail::_List_node_base"** %_M_prev.i.i.i.i2.i, align 8, !dbg !20688
  call void @llvm.dbg.value(metadata %"class.PMGD::CallbackList.120"* %_property_iterator_list.i, metadata !20689, metadata !DIExpression()), !dbg !20693
  call void @llvm.dbg.value(metadata i64 0, metadata !20692, metadata !DIExpression()), !dbg !20695
  call void @llvm.dbg.value(metadata %"class.PMGD::CallbackList.120"* %_property_iterator_list.i, metadata !20384, metadata !DIExpression()), !dbg !20696
  %_M_storage.i.i.i.i.i.i3.i = getelementptr inbounds %"class.PMGD::TransactionImpl", %"class.PMGD::TransactionImpl"* %this, i64 0, i32 14, i32 2, i32 0, i32 0, i32 0, i32 0, i32 1, !dbg !20698
  call void @llvm.dbg.value(metadata %"struct.__gnu_cxx::__aligned_membuf"* %_M_storage.i.i.i.i.i.i3.i, metadata !20390, metadata !DIExpression()), !dbg !20699
  %19 = bitcast %"struct.__gnu_cxx::__aligned_membuf"* %_M_storage.i.i.i.i.i.i3.i to i64*, !dbg !20701
  store i64 0, i64* %19, align 8, !dbg !20702
  %and = and i32 %options, 2, !dbg !20703
  %tobool = icmp ne i32 %and, 0, !dbg !20704
  br i1 %tobool, label %if.then, label %entry.if.end24_crit_edge, !dbg !20705

entry.if.end24_crit_edge:                         ; preds = %entry
  %_msync_needed29.phi.trans.insert = getelementptr inbounds %"class.PMGD::TransactionImpl", %"class.PMGD::TransactionImpl"* %this, i64 0, i32 10
  %.pre = load i8, i8* %_msync_needed29.phi.trans.insert, align 4, !dbg !20706, !range !20707
  br label %if.end24, !dbg !20705

if.then:                                          ; preds = %entry
  call void @llvm.dbg.value(metadata %"class.PMGD::GraphImpl"* %db, metadata !20708, metadata !DIExpression()), !dbg !20711
  %read_only.i = getelementptr inbounds %"class.PMGD::GraphImpl", %"class.PMGD::GraphImpl"* %db, i64 0, i32 1, i32 3, i32 1, !dbg !20715
  %20 = load i8, i8* %read_only.i, align 1, !dbg !20715, !range !20707
  %tobool.i = icmp eq i8 %20, 0, !dbg !20715
  br i1 %tobool.i, label %if.end, label %if.then.i, !dbg !20717

if.then.i:                                        ; preds = %if.then
  %exception.i = tail call i8* @__cxa_allocate_exception(i64 72) #14, !dbg !20718
  call void @llvm.dbg.value(metadata i8* %exception.i, metadata !18951, metadata !DIExpression()), !dbg !20719
  call void @llvm.dbg.value(metadata i32 6, metadata !18954, metadata !DIExpression()), !dbg !20721
  call void @llvm.dbg.value(metadata i8* getelementptr inbounds ([9 x i8], [9 x i8]* @.str.45, i64 0, i64 0), metadata !18955, metadata !DIExpression()), !dbg !20722
  call void @llvm.dbg.value(metadata i8* getelementptr inbounds ([16 x i8], [16 x i8]* @.str.50, i64 0, i64 0), metadata !18956, metadata !DIExpression()), !dbg !20723
  call void @llvm.dbg.value(metadata i32 128, metadata !18957, metadata !DIExpression()), !dbg !20724
  %num.i.i = bitcast i8* %exception.i to i32*, !dbg !20725
  store i32 6, i32* %num.i.i, align 8, !dbg !20725
  %name.i.i = getelementptr inbounds i8, i8* %exception.i, i64 8, !dbg !20726
  %21 = bitcast i8* %name.i.i to i8**, !dbg !20726
  store i8* getelementptr inbounds ([9 x i8], [9 x i8]* @.str.45, i64 0, i64 0), i8** %21, align 8, !dbg !20726
  %msg.i.i = getelementptr inbounds i8, i8* %exception.i, i64 16, !dbg !20727
  call void @llvm.dbg.value(metadata i8* %msg.i.i, metadata !18967, metadata !DIExpression()), !dbg !20728
  call void @llvm.dbg.value(metadata i8* %msg.i.i, metadata !18476, metadata !DIExpression()), !dbg !20730
  %22 = getelementptr inbounds i8, i8* %exception.i, i64 32, !dbg !20732
  call void @llvm.dbg.value(metadata i8* %msg.i.i, metadata !18482, metadata !DIExpression()), !dbg !20733
  call void @llvm.dbg.value(metadata i8* %22, metadata !18485, metadata !DIExpression()), !dbg !20735
  call void @llvm.dbg.value(metadata %"class.std::allocator"* undef, metadata !18486, metadata !DIExpression()), !dbg !20736
  %23 = bitcast i8* %msg.i.i to i8**, !dbg !20737
  store i8* %22, i8** %23, align 8, !dbg !20737
  call void @llvm.dbg.value(metadata i8** %23, metadata !18575, metadata !DIExpression()), !dbg !20738
  call void @llvm.dbg.value(metadata i64 0, metadata !18578, metadata !DIExpression()), !dbg !20740
  call void @llvm.dbg.value(metadata i8** %23, metadata !18582, metadata !DIExpression()), !dbg !20741
  call void @llvm.dbg.value(metadata i64 0, metadata !18585, metadata !DIExpression()), !dbg !20743
  %_M_string_length.i.i.i.i.i = getelementptr inbounds i8, i8* %exception.i, i64 24, !dbg !20744
  %24 = bitcast i8* %_M_string_length.i.i.i.i.i to i64*, !dbg !20744
  store i64 0, i64* %24, align 8, !dbg !20745
  call void @llvm.dbg.value(metadata i8* %22, metadata !18594, metadata !DIExpression()), !dbg !20746
  store i8 0, i8* %22, align 1, !dbg !20748
  %errno_val.i.i = getelementptr inbounds i8, i8* %exception.i, i64 48, !dbg !20749
  %25 = bitcast i8* %errno_val.i.i to i32*, !dbg !20749
  store i32 0, i32* %25, align 8, !dbg !20749
  %file.i.i = getelementptr inbounds i8, i8* %exception.i, i64 56, !dbg !20750
  %26 = bitcast i8* %file.i.i to i8**, !dbg !20750
  store i8* getelementptr inbounds ([16 x i8], [16 x i8]* @.str.50, i64 0, i64 0), i8** %26, align 8, !dbg !20750
  %line.i.i = getelementptr inbounds i8, i8* %exception.i, i64 64, !dbg !20751
  %27 = bitcast i8* %line.i.i to i32*, !dbg !20751
  store i32 128, i32* %27, align 8, !dbg !20751
  invoke void @__cxa_throw(i8* %exception.i, i8* bitcast ({ i8*, i8* }* @_ZTIN4PMGD9ExceptionE to i8*), i8* bitcast (void (%"struct.PMGD::Exception"*)* @_ZN4PMGD9ExceptionD2Ev to i8*)) #16
          to label %.noexc unwind label %lpad13, !dbg !20718

.noexc:                                           ; preds = %if.then.i
  unreachable, !dbg !20718

lpad13:                                           ; preds = %if.then.i, %if.then21
  %28 = landingpad { i8*, i32 }
          cleanup, !dbg !20752
  %29 = extractvalue { i8*, i32 } %28, 0, !dbg !20752
  %30 = extractvalue { i8*, i32 } %28, 1, !dbg !20752
  br label %ehcleanup, !dbg !20752

if.end:                                           ; preds = %if.then
  %_msync_needed = getelementptr inbounds %"class.PMGD::TransactionImpl", %"class.PMGD::TransactionImpl"* %this, i64 0, i32 10, !dbg !20753
  %_always_msync = getelementptr inbounds %"class.PMGD::TransactionImpl", %"class.PMGD::TransactionImpl"* %this, i64 0, i32 11, !dbg !20754
  call void @llvm.dbg.value(metadata %"class.PMGD::GraphImpl"* %db, metadata !20755, metadata !DIExpression()), !dbg !20760
  call void @llvm.dbg.value(metadata i8* %_msync_needed, metadata !20758, metadata !DIExpression()), !dbg !20762
  call void @llvm.dbg.value(metadata i8* %_always_msync, metadata !20759, metadata !DIExpression()), !dbg !20763
  %msync_needed2.i = getelementptr inbounds %"class.PMGD::GraphImpl", %"class.PMGD::GraphImpl"* %db, i64 0, i32 1, i32 3, i32 2, !dbg !20764
  %31 = load i8, i8* %msync_needed2.i, align 2, !dbg !20764, !range !20707
  store i8 %31, i8* %_msync_needed, align 1, !dbg !20765
  %always_msync5.i = getelementptr inbounds %"class.PMGD::GraphImpl", %"class.PMGD::GraphImpl"* %db, i64 0, i32 1, i32 3, i32 3, !dbg !20766
  %32 = load i8, i8* %always_msync5.i, align 1, !dbg !20766, !range !20707
  store i8 %32, i8* %_always_msync, align 1, !dbg !20767
  %33 = load %"class.PMGD::TransactionImpl"*, %"class.PMGD::TransactionImpl"** @_ZN4PMGD15TransactionImpl14_per_thread_txE, align 8, !dbg !20768
  %cmp = icmp ne %"class.PMGD::TransactionImpl"* %33, null, !dbg !20770
  %34 = and i32 %options, 3, !dbg !20771
  %35 = icmp eq i32 %34, 2, !dbg !20771
  %36 = and i1 %35, %cmp, !dbg !20771
  br i1 %36, label %if.then21, label %if.end24, !dbg !20771

if.then21:                                        ; preds = %if.end
  %exception = tail call i8* @__cxa_allocate_exception(i64 72) #14, !dbg !20772
  call void @llvm.dbg.value(metadata i8* %exception, metadata !18951, metadata !DIExpression()), !dbg !20773
  call void @llvm.dbg.value(metadata i32 101, metadata !18954, metadata !DIExpression()), !dbg !20775
  call void @llvm.dbg.value(metadata i8* getelementptr inbounds ([15 x i8], [15 x i8]* @.str.51, i64 0, i64 0), metadata !18955, metadata !DIExpression()), !dbg !20776
  call void @llvm.dbg.value(metadata i8* getelementptr inbounds ([19 x i8], [19 x i8]* @.str.52, i64 0, i64 0), metadata !18956, metadata !DIExpression()), !dbg !20777
  call void @llvm.dbg.value(metadata i32 93, metadata !18957, metadata !DIExpression()), !dbg !20778
  %num.i = bitcast i8* %exception to i32*, !dbg !20779
  store i32 101, i32* %num.i, align 8, !dbg !20779
  %name.i = getelementptr inbounds i8, i8* %exception, i64 8, !dbg !20780
  %37 = bitcast i8* %name.i to i8**, !dbg !20780
  store i8* getelementptr inbounds ([15 x i8], [15 x i8]* @.str.51, i64 0, i64 0), i8** %37, align 8, !dbg !20780
  %msg.i = getelementptr inbounds i8, i8* %exception, i64 16, !dbg !20781
  call void @llvm.dbg.value(metadata i8* %msg.i, metadata !18967, metadata !DIExpression()), !dbg !20782
  call void @llvm.dbg.value(metadata i8* %msg.i, metadata !18476, metadata !DIExpression()), !dbg !20784
  %38 = getelementptr inbounds i8, i8* %exception, i64 32, !dbg !20786
  call void @llvm.dbg.value(metadata i8* %msg.i, metadata !18482, metadata !DIExpression()), !dbg !20787
  call void @llvm.dbg.value(metadata i8* %38, metadata !18485, metadata !DIExpression()), !dbg !20789
  call void @llvm.dbg.value(metadata %"class.std::allocator"* undef, metadata !18486, metadata !DIExpression()), !dbg !20790
  %39 = bitcast i8* %msg.i to i8**, !dbg !20791
  store i8* %38, i8** %39, align 8, !dbg !20791
  call void @llvm.dbg.value(metadata i8** %39, metadata !18575, metadata !DIExpression()), !dbg !20792
  call void @llvm.dbg.value(metadata i64 0, metadata !18578, metadata !DIExpression()), !dbg !20794
  call void @llvm.dbg.value(metadata i8** %39, metadata !18582, metadata !DIExpression()), !dbg !20795
  call void @llvm.dbg.value(metadata i64 0, metadata !18585, metadata !DIExpression()), !dbg !20797
  %_M_string_length.i.i.i.i = getelementptr inbounds i8, i8* %exception, i64 24, !dbg !20798
  %40 = bitcast i8* %_M_string_length.i.i.i.i to i64*, !dbg !20798
  store i64 0, i64* %40, align 8, !dbg !20799
  call void @llvm.dbg.value(metadata i8* %38, metadata !18594, metadata !DIExpression()), !dbg !20800
  store i8 0, i8* %38, align 1, !dbg !20802
  %errno_val.i = getelementptr inbounds i8, i8* %exception, i64 48, !dbg !20803
  %41 = bitcast i8* %errno_val.i to i32*, !dbg !20803
  store i32 0, i32* %41, align 8, !dbg !20803
  %file.i = getelementptr inbounds i8, i8* %exception, i64 56, !dbg !20804
  %42 = bitcast i8* %file.i to i8**, !dbg !20804
  store i8* getelementptr inbounds ([19 x i8], [19 x i8]* @.str.52, i64 0, i64 0), i8** %42, align 8, !dbg !20804
  %line.i = getelementptr inbounds i8, i8* %exception, i64 64, !dbg !20805
  %43 = bitcast i8* %line.i to i32*, !dbg !20805
  store i32 93, i32* %43, align 8, !dbg !20805
  invoke void @__cxa_throw(i8* %exception, i8* bitcast ({ i8*, i8* }* @_ZTIN4PMGD9ExceptionE to i8*), i8* bitcast (void (%"struct.PMGD::Exception"*)* @_ZN4PMGD9ExceptionD2Ev to i8*)) #16
          to label %unreachable unwind label %lpad13, !dbg !20772

if.end24:                                         ; preds = %entry.if.end24_crit_edge, %if.end
  %44 = phi i8 [ %.pre, %entry.if.end24_crit_edge ], [ %31, %if.end ], !dbg !20706
  %tobool.not61 = xor i1 %tobool, true, !dbg !20771
  %45 = bitcast %"struct.PMGD::TransactionHandle"* %ref.tmp to i8*, !dbg !20806
  call void @llvm.lifetime.start.p0i8(i64 32, i8* nonnull %45) #14, !dbg !20806
  call void @llvm.dbg.value(metadata %"class.PMGD::GraphImpl"* %db, metadata !20807, metadata !DIExpression()), !dbg !20810
  %_transaction_manager.i = getelementptr inbounds %"class.PMGD::GraphImpl", %"class.PMGD::GraphImpl"* %db, i64 0, i32 9, !dbg !20812
  %tobool30 = icmp ne i8 %44, 0, !dbg !20706
  invoke void @_ZN4PMGD18TransactionManager17alloc_transactionEbbRNS_8RangeSetE(%"struct.PMGD::TransactionHandle"* nonnull sret %ref.tmp, %"class.PMGD::TransactionManager"* nonnull %_transaction_manager.i, i1 zeroext %tobool.not61, i1 zeroext %tobool30, %"class.PMGD::RangeSet"* nonnull dereferenceable(48) %_pending_commits)
          to label %invoke.cont32 unwind label %lpad25, !dbg !20813

invoke.cont32:                                    ; preds = %if.end24
  %46 = bitcast %"struct.PMGD::TransactionHandle"* %_tx_handle to i8*, !dbg !20814
  call void @llvm.memcpy.p0i8.p0i8.i64(i8* nonnull align 8 %46, i8* nonnull align 8 %45, i64 32, i1 false), !dbg !20814
  call void @llvm.lifetime.end.p0i8(i64 32, i8* nonnull %45) #14, !dbg !20815
  call void @llvm.dbg.value(metadata %"class.PMGD::TransactionImpl"* %this, metadata !20219, metadata !DIExpression()), !dbg !20816
  %47 = bitcast i8** %jbegin.i to i64*, !dbg !20818
  %48 = load i64, i64* %47, align 8, !dbg !20818
  %_jcur = getelementptr inbounds %"class.PMGD::TransactionImpl", %"class.PMGD::TransactionImpl"* %this, i64 0, i32 4, !dbg !20819
  %49 = bitcast %"struct.PMGD::TransactionImpl::JournalEntry"** %_jcur to i64*, !dbg !20820
  store i64 %48, i64* %49, align 8, !dbg !20820
  %50 = load i64, i64* bitcast (%"class.PMGD::TransactionImpl"** @_ZN4PMGD15TransactionImpl14_per_thread_txE to i64*), align 8, !dbg !20821
  %_outer_tx = getelementptr inbounds %"class.PMGD::TransactionImpl", %"class.PMGD::TransactionImpl"* %this, i64 0, i32 5, !dbg !20822
  %51 = bitcast %"class.PMGD::TransactionImpl"** %_outer_tx to i64*, !dbg !20823
  store i64 %50, i64* %51, align 8, !dbg !20823
  store %"class.PMGD::TransactionImpl"* %this, %"class.PMGD::TransactionImpl"** @_ZN4PMGD15TransactionImpl14_per_thread_txE, align 8, !dbg !20824
  %_alloc_id = getelementptr inbounds %"class.PMGD::TransactionImpl", %"class.PMGD::TransactionImpl"* %this, i64 0, i32 9, !dbg !20825
  store i32 -1, i32* %_alloc_id, align 8, !dbg !20826
  ret void, !dbg !20827

lpad25:                                           ; preds = %if.end24
  %52 = landingpad { i8*, i32 }
          cleanup, !dbg !20828
  %53 = extractvalue { i8*, i32 } %52, 0, !dbg !20828
  %54 = extractvalue { i8*, i32 } %52, 1, !dbg !20828
  call void @llvm.lifetime.end.p0i8(i64 32, i8* nonnull %45) #14, !dbg !20815
  br label %ehcleanup, !dbg !20815

ehcleanup:                                        ; preds = %lpad25, %lpad13
  %ehselector.slot.0 = phi i32 [ %54, %lpad25 ], [ %30, %lpad13 ], !dbg !20829
  %exn.slot.0 = phi i8* [ %53, %lpad25 ], [ %29, %lpad13 ], !dbg !20829
  call void @_ZN4PMGD15TransactionImpl17IteratorCallbacksD2Ev(%"class.PMGD::TransactionImpl::IteratorCallbacks"* nonnull %_iter_callbacks) #14, !dbg !20828
  call void @_ZNSt5arrayIN4PMGD15TransactionImpl5LocksELm3EED2Ev(%"struct.std::array"* nonnull %_locks) #14, !dbg !20828
  call void @llvm.dbg.value(metadata %"class.PMGD::RangeSet"* %_pending_commits, metadata !20830, metadata !DIExpression()) #14, !dbg !20834
  call void @llvm.dbg.value(metadata %"class.PMGD::RangeSet"* %_pending_commits, metadata !20836, metadata !DIExpression()) #14, !dbg !20840
  %_M_t.i.i = getelementptr inbounds %"class.PMGD::RangeSet", %"class.PMGD::RangeSet"* %_pending_commits, i64 0, i32 0, i32 0, !dbg !20843
  call void @llvm.dbg.value(metadata %"class.std::_Rb_tree"* %_M_t.i.i, metadata !20845, metadata !DIExpression()) #14, !dbg !20848
  call void @llvm.dbg.value(metadata %"class.std::_Rb_tree"* %_M_t.i.i, metadata !20850, metadata !DIExpression()) #14, !dbg !20853
  %_M_parent.i.i.i.i = getelementptr inbounds %"class.PMGD::TransactionImpl", %"class.PMGD::TransactionImpl"* %this, i64 0, i32 12, i32 0, i32 0, i32 0, i32 1, i32 1, !dbg !20856
  %55 = bitcast %"struct.std::_Rb_tree_node_base"** %_M_parent.i.i.i.i to %"struct.std::_Rb_tree_node"**, !dbg !20856
  %56 = load %"struct.std::_Rb_tree_node"*, %"struct.std::_Rb_tree_node"** %55, align 8, !dbg !20856
  invoke void @_ZNSt8_Rb_treeIN4PMGD8RangeSet5RangeES2_St9_IdentityIS2_ENS1_9RangeCompESaIS2_EE8_M_eraseEPSt13_Rb_tree_nodeIS2_E(%"class.std::_Rb_tree"* nonnull %_M_t.i.i, %"struct.std::_Rb_tree_node"* %56)
          to label %_ZN4PMGD8RangeSetD2Ev.exit unwind label %lpad.i.i.i, !dbg !20857

lpad.i.i.i:                                       ; preds = %ehcleanup
  %57 = landingpad { i8*, i32 }
          catch i8* null, !dbg !20858
  %58 = extractvalue { i8*, i32 } %57, 0, !dbg !20858
  call void @__clang_call_terminate(i8* %58) #15, !dbg !20858
  unreachable, !dbg !20858

_ZN4PMGD8RangeSetD2Ev.exit:                       ; preds = %ehcleanup
  call void @llvm.dbg.value(metadata %"class.PMGD::CallbackList.138"* %_finalize_callback_list, metadata !20859, metadata !DIExpression()) #14, !dbg !20863
  call void @llvm.dbg.value(metadata %"class.PMGD::CallbackList.138"* %_finalize_callback_list, metadata !20865, metadata !DIExpression()) #14, !dbg !20868
  call void @llvm.dbg.value(metadata %"class.PMGD::CallbackList.138"* %_finalize_callback_list, metadata !15789, metadata !DIExpression()) #14, !dbg !20871
  %59 = load %"struct.std::__detail::_List_node_base"*, %"struct.std::__detail::_List_node_base"** %_M_next.i.i.i.i12, align 8, !dbg !20874
  call void @llvm.dbg.value(metadata %"struct.std::__detail::_List_node_base"* %59, metadata !15791, metadata !DIExpression()) #14, !dbg !20875
  %cmp11.i.i.i30 = icmp eq %"struct.std::__detail::_List_node_base"* %59, %5, !dbg !20876
  br i1 %cmp11.i.i.i30, label %_ZN4PMGD12CallbackListIPvPNS_15TransactionImplEED2Ev.exit42, label %while.body.i.i.i35, !dbg !20877

while.body.i.i.i35:                               ; preds = %_ZN4PMGD8RangeSetD2Ev.exit, %invoke.cont6.i.i.i41
  %.in1012.i.i.i31 = phi %"struct.std::__detail::_List_node_base"* [ %60, %invoke.cont6.i.i.i41 ], [ %59, %_ZN4PMGD8RangeSetD2Ev.exit ]
  call void @llvm.dbg.value(metadata %"struct.std::__detail::_List_node_base"* %.in1012.i.i.i31, metadata !15791, metadata !DIExpression()) #14, !dbg !20875
  call void @llvm.dbg.value(metadata %"struct.std::__detail::_List_node_base"* %.in1012.i.i.i31, metadata !15792, metadata !DIExpression()) #14, !dbg !20878
  %_M_next4.i.i.i32 = getelementptr inbounds %"struct.std::__detail::_List_node_base", %"struct.std::__detail::_List_node_base"* %.in1012.i.i.i31, i64 0, i32 0, !dbg !20879
  %60 = load %"struct.std::__detail::_List_node_base"*, %"struct.std::__detail::_List_node_base"** %_M_next4.i.i.i32, align 8, !dbg !20879
  call void @llvm.dbg.value(metadata %"class.PMGD::CallbackList.138"* %_finalize_callback_list, metadata !20880, metadata !DIExpression()) #14, !dbg !20889
  call void @llvm.dbg.value(metadata %"class.PMGD::CallbackList.138"* %_finalize_callback_list, metadata !20891, metadata !DIExpression()) #14, !dbg !20899
  %_M_manager.i.i.i.i.i.i.i33 = getelementptr inbounds %"struct.std::__detail::_List_node_base", %"struct.std::__detail::_List_node_base"* %.in1012.i.i.i31, i64 2, i32 1, !dbg !20901
  %61 = bitcast %"struct.std::__detail::_List_node_base"** %_M_manager.i.i.i.i.i.i.i33 to i1 (%"union.std::_Any_data"*, %"union.std::_Any_data"*, i32)**, !dbg !20901
  %62 = load i1 (%"union.std::_Any_data"*, %"union.std::_Any_data"*, i32)*, i1 (%"union.std::_Any_data"*, %"union.std::_Any_data"*, i32)** %61, align 8, !dbg !20901
  %tobool.i.i.i.i.i.i.i34 = icmp eq i1 (%"union.std::_Any_data"*, %"union.std::_Any_data"*, i32)* %62, null, !dbg !20901
  br i1 %tobool.i.i.i.i.i.i.i34, label %invoke.cont6.i.i.i41, label %if.then.i.i.i.i.i.i.i38, !dbg !20918

if.then.i.i.i.i.i.i.i38:                          ; preds = %while.body.i.i.i35
  call void @llvm.dbg.value(metadata %"struct.std::__detail::_List_node_base"* %.in1012.i.i.i31, metadata !15794, metadata !DIExpression(DW_OP_plus_uconst, 16, DW_OP_stack_value)) #14, !dbg !20919
  call void @llvm.dbg.value(metadata %"struct.std::__detail::_List_node_base"* %.in1012.i.i.i31, metadata !20888, metadata !DIExpression(DW_OP_plus_uconst, 16, DW_OP_stack_value)) #14, !dbg !20920
  call void @llvm.dbg.value(metadata %"struct.std::__detail::_List_node_base"* %.in1012.i.i.i31, metadata !20897, metadata !DIExpression(DW_OP_plus_uconst, 16, DW_OP_stack_value)) #14, !dbg !20921
  call void @llvm.dbg.value(metadata %"struct.std::__detail::_List_node_base"* %.in1012.i.i.i31, metadata !20916, metadata !DIExpression(DW_OP_plus_uconst, 16, DW_OP_stack_value)) #14, !dbg !20922
  call void @llvm.dbg.value(metadata %"struct.std::__detail::_List_node_base"* %.in1012.i.i.i31, metadata !20906, metadata !DIExpression(DW_OP_plus_uconst, 16, DW_OP_plus_uconst, 8, DW_OP_stack_value)) #14, !dbg !20923
  %_M_functor.i.i.i.i.i.i.i36 = getelementptr inbounds %"struct.std::__detail::_List_node_base", %"struct.std::__detail::_List_node_base"* %.in1012.i.i.i31, i64 1, i32 1, !dbg !20924
  %63 = bitcast %"struct.std::__detail::_List_node_base"** %_M_functor.i.i.i.i.i.i.i36 to %"union.std::_Any_data"*, !dbg !20924
  %call.i.i.i.i.i.i.i37 = invoke zeroext i1 %62(%"union.std::_Any_data"* nonnull dereferenceable(16) %63, %"union.std::_Any_data"* nonnull dereferenceable(16) %63, i32 3)
          to label %invoke.cont6.i.i.i41 unwind label %terminate.lpad.i.i.i.i.i.i.i39, !dbg !20925

terminate.lpad.i.i.i.i.i.i.i39:                   ; preds = %if.then.i.i.i.i.i.i.i38
  %64 = landingpad { i8*, i32 }
          catch i8* null, !dbg !20925
  %65 = extractvalue { i8*, i32 } %64, 0, !dbg !20925
  call void @__clang_call_terminate(i8* %65) #15, !dbg !20925
  unreachable, !dbg !20925

invoke.cont6.i.i.i41:                             ; preds = %if.then.i.i.i.i.i.i.i38, %while.body.i.i.i35
  call void @llvm.dbg.value(metadata %"class.PMGD::CallbackList.138"* %_finalize_callback_list, metadata !20926, metadata !DIExpression()) #14, !dbg !20930
  call void @llvm.dbg.value(metadata %"struct.std::__detail::_List_node_base"* %.in1012.i.i.i31, metadata !20929, metadata !DIExpression()) #14, !dbg !20932
  call void @llvm.dbg.value(metadata %"class.PMGD::CallbackList.138"* %_finalize_callback_list, metadata !20933, metadata !DIExpression()) #14, !dbg !20938
  call void @llvm.dbg.value(metadata %"struct.std::__detail::_List_node_base"* %.in1012.i.i.i31, metadata !20936, metadata !DIExpression()) #14, !dbg !20940
  call void @llvm.dbg.value(metadata i64 1, metadata !20937, metadata !DIExpression()) #14, !dbg !20941
  call void @llvm.dbg.value(metadata %"class.PMGD::CallbackList.138"* %_finalize_callback_list, metadata !20942, metadata !DIExpression()) #14, !dbg !20947
  call void @llvm.dbg.value(metadata %"struct.std::__detail::_List_node_base"* %.in1012.i.i.i31, metadata !20945, metadata !DIExpression()) #14, !dbg !20949
  call void @llvm.dbg.value(metadata i64 1, metadata !20946, metadata !DIExpression()) #14, !dbg !20950
  %66 = bitcast %"struct.std::__detail::_List_node_base"* %.in1012.i.i.i31 to i8*, !dbg !20951
  call void @_ZdlPv(i8* %66) #14, !dbg !20952
  call void @llvm.dbg.value(metadata %"struct.std::__detail::_List_node_base"* %60, metadata !15791, metadata !DIExpression()) #14, !dbg !20875
  %cmp.i.i.i40 = icmp eq %"struct.std::__detail::_List_node_base"* %60, %5, !dbg !20876
  br i1 %cmp.i.i.i40, label %_ZN4PMGD12CallbackListIPvPNS_15TransactionImplEED2Ev.exit42, label %while.body.i.i.i35, !dbg !20877, !llvm.loop !20953

_ZN4PMGD12CallbackListIPvPNS_15TransactionImplEED2Ev.exit42: ; preds = %invoke.cont6.i.i.i41, %_ZN4PMGD8RangeSetD2Ev.exit
  call void @llvm.dbg.value(metadata %"class.PMGD::CallbackList.138"* %_abort_callback_list, metadata !20859, metadata !DIExpression()) #14, !dbg !20956
  call void @llvm.dbg.value(metadata %"class.PMGD::CallbackList.138"* %_abort_callback_list, metadata !20865, metadata !DIExpression()) #14, !dbg !20958
  call void @llvm.dbg.value(metadata %"class.PMGD::CallbackList.138"* %_abort_callback_list, metadata !15789, metadata !DIExpression()) #14, !dbg !20960
  %67 = load %"struct.std::__detail::_List_node_base"*, %"struct.std::__detail::_List_node_base"** %_M_next.i.i.i.i9, align 8, !dbg !20962
  call void @llvm.dbg.value(metadata %"struct.std::__detail::_List_node_base"* %67, metadata !15791, metadata !DIExpression()) #14, !dbg !20963
  %cmp11.i.i.i16 = icmp eq %"struct.std::__detail::_List_node_base"* %67, %3, !dbg !20964
  br i1 %cmp11.i.i.i16, label %_ZN4PMGD12CallbackListIPvPNS_15TransactionImplEED2Ev.exit28, label %while.body.i.i.i21, !dbg !20965

while.body.i.i.i21:                               ; preds = %_ZN4PMGD12CallbackListIPvPNS_15TransactionImplEED2Ev.exit42, %invoke.cont6.i.i.i27
  %.in1012.i.i.i17 = phi %"struct.std::__detail::_List_node_base"* [ %68, %invoke.cont6.i.i.i27 ], [ %67, %_ZN4PMGD12CallbackListIPvPNS_15TransactionImplEED2Ev.exit42 ]
  call void @llvm.dbg.value(metadata %"struct.std::__detail::_List_node_base"* %.in1012.i.i.i17, metadata !15791, metadata !DIExpression()) #14, !dbg !20963
  call void @llvm.dbg.value(metadata %"struct.std::__detail::_List_node_base"* %.in1012.i.i.i17, metadata !15792, metadata !DIExpression()) #14, !dbg !20966
  %_M_next4.i.i.i18 = getelementptr inbounds %"struct.std::__detail::_List_node_base", %"struct.std::__detail::_List_node_base"* %.in1012.i.i.i17, i64 0, i32 0, !dbg !20967
  %68 = load %"struct.std::__detail::_List_node_base"*, %"struct.std::__detail::_List_node_base"** %_M_next4.i.i.i18, align 8, !dbg !20967
  call void @llvm.dbg.value(metadata %"class.PMGD::CallbackList.138"* %_abort_callback_list, metadata !20880, metadata !DIExpression()) #14, !dbg !20968
  call void @llvm.dbg.value(metadata %"class.PMGD::CallbackList.138"* %_abort_callback_list, metadata !20891, metadata !DIExpression()) #14, !dbg !20970
  %_M_manager.i.i.i.i.i.i.i19 = getelementptr inbounds %"struct.std::__detail::_List_node_base", %"struct.std::__detail::_List_node_base"* %.in1012.i.i.i17, i64 2, i32 1, !dbg !20972
  %69 = bitcast %"struct.std::__detail::_List_node_base"** %_M_manager.i.i.i.i.i.i.i19 to i1 (%"union.std::_Any_data"*, %"union.std::_Any_data"*, i32)**, !dbg !20972
  %70 = load i1 (%"union.std::_Any_data"*, %"union.std::_Any_data"*, i32)*, i1 (%"union.std::_Any_data"*, %"union.std::_Any_data"*, i32)** %69, align 8, !dbg !20972
  %tobool.i.i.i.i.i.i.i20 = icmp eq i1 (%"union.std::_Any_data"*, %"union.std::_Any_data"*, i32)* %70, null, !dbg !20972
  br i1 %tobool.i.i.i.i.i.i.i20, label %invoke.cont6.i.i.i27, label %if.then.i.i.i.i.i.i.i24, !dbg !20975

if.then.i.i.i.i.i.i.i24:                          ; preds = %while.body.i.i.i21
  call void @llvm.dbg.value(metadata %"struct.std::__detail::_List_node_base"* %.in1012.i.i.i17, metadata !15794, metadata !DIExpression(DW_OP_plus_uconst, 16, DW_OP_stack_value)) #14, !dbg !20976
  call void @llvm.dbg.value(metadata %"struct.std::__detail::_List_node_base"* %.in1012.i.i.i17, metadata !20888, metadata !DIExpression(DW_OP_plus_uconst, 16, DW_OP_stack_value)) #14, !dbg !20977
  call void @llvm.dbg.value(metadata %"struct.std::__detail::_List_node_base"* %.in1012.i.i.i17, metadata !20897, metadata !DIExpression(DW_OP_plus_uconst, 16, DW_OP_stack_value)) #14, !dbg !20978
  call void @llvm.dbg.value(metadata %"struct.std::__detail::_List_node_base"* %.in1012.i.i.i17, metadata !20916, metadata !DIExpression(DW_OP_plus_uconst, 16, DW_OP_stack_value)) #14, !dbg !20979
  call void @llvm.dbg.value(metadata %"struct.std::__detail::_List_node_base"* %.in1012.i.i.i17, metadata !20906, metadata !DIExpression(DW_OP_plus_uconst, 16, DW_OP_plus_uconst, 8, DW_OP_stack_value)) #14, !dbg !20980
  %_M_functor.i.i.i.i.i.i.i22 = getelementptr inbounds %"struct.std::__detail::_List_node_base", %"struct.std::__detail::_List_node_base"* %.in1012.i.i.i17, i64 1, i32 1, !dbg !20981
  %71 = bitcast %"struct.std::__detail::_List_node_base"** %_M_functor.i.i.i.i.i.i.i22 to %"union.std::_Any_data"*, !dbg !20981
  %call.i.i.i.i.i.i.i23 = invoke zeroext i1 %70(%"union.std::_Any_data"* nonnull dereferenceable(16) %71, %"union.std::_Any_data"* nonnull dereferenceable(16) %71, i32 3)
          to label %invoke.cont6.i.i.i27 unwind label %terminate.lpad.i.i.i.i.i.i.i25, !dbg !20982

terminate.lpad.i.i.i.i.i.i.i25:                   ; preds = %if.then.i.i.i.i.i.i.i24
  %72 = landingpad { i8*, i32 }
          catch i8* null, !dbg !20982
  %73 = extractvalue { i8*, i32 } %72, 0, !dbg !20982
  call void @__clang_call_terminate(i8* %73) #15, !dbg !20982
  unreachable, !dbg !20982

invoke.cont6.i.i.i27:                             ; preds = %if.then.i.i.i.i.i.i.i24, %while.body.i.i.i21
  call void @llvm.dbg.value(metadata %"class.PMGD::CallbackList.138"* %_abort_callback_list, metadata !20926, metadata !DIExpression()) #14, !dbg !20983
  call void @llvm.dbg.value(metadata %"struct.std::__detail::_List_node_base"* %.in1012.i.i.i17, metadata !20929, metadata !DIExpression()) #14, !dbg !20985
  call void @llvm.dbg.value(metadata %"class.PMGD::CallbackList.138"* %_abort_callback_list, metadata !20933, metadata !DIExpression()) #14, !dbg !20986
  call void @llvm.dbg.value(metadata %"struct.std::__detail::_List_node_base"* %.in1012.i.i.i17, metadata !20936, metadata !DIExpression()) #14, !dbg !20988
  call void @llvm.dbg.value(metadata i64 1, metadata !20937, metadata !DIExpression()) #14, !dbg !20989
  call void @llvm.dbg.value(metadata %"class.PMGD::CallbackList.138"* %_abort_callback_list, metadata !20942, metadata !DIExpression()) #14, !dbg !20990
  call void @llvm.dbg.value(metadata %"struct.std::__detail::_List_node_base"* %.in1012.i.i.i17, metadata !20945, metadata !DIExpression()) #14, !dbg !20992
  call void @llvm.dbg.value(metadata i64 1, metadata !20946, metadata !DIExpression()) #14, !dbg !20993
  %74 = bitcast %"struct.std::__detail::_List_node_base"* %.in1012.i.i.i17 to i8*, !dbg !20994
  call void @_ZdlPv(i8* %74) #14, !dbg !20995
  call void @llvm.dbg.value(metadata %"struct.std::__detail::_List_node_base"* %68, metadata !15791, metadata !DIExpression()) #14, !dbg !20963
  %cmp.i.i.i26 = icmp eq %"struct.std::__detail::_List_node_base"* %68, %3, !dbg !20964
  br i1 %cmp.i.i.i26, label %_ZN4PMGD12CallbackListIPvPNS_15TransactionImplEED2Ev.exit28, label %while.body.i.i.i21, !dbg !20965, !llvm.loop !20953

_ZN4PMGD12CallbackListIPvPNS_15TransactionImplEED2Ev.exit28: ; preds = %invoke.cont6.i.i.i27, %_ZN4PMGD12CallbackListIPvPNS_15TransactionImplEED2Ev.exit42
  call void @llvm.dbg.value(metadata %"class.PMGD::CallbackList.138"* %_commit_callback_list, metadata !20859, metadata !DIExpression()) #14, !dbg !20996
  call void @llvm.dbg.value(metadata %"class.PMGD::CallbackList.138"* %_commit_callback_list, metadata !20865, metadata !DIExpression()) #14, !dbg !20998
  call void @llvm.dbg.value(metadata %"class.PMGD::CallbackList.138"* %_commit_callback_list, metadata !15789, metadata !DIExpression()) #14, !dbg !21000
  %75 = load %"struct.std::__detail::_List_node_base"*, %"struct.std::__detail::_List_node_base"** %_M_next.i.i.i.i, align 8, !dbg !21002
  call void @llvm.dbg.value(metadata %"struct.std::__detail::_List_node_base"* %75, metadata !15791, metadata !DIExpression()) #14, !dbg !21003
  %cmp11.i.i.i = icmp eq %"struct.std::__detail::_List_node_base"* %75, %1, !dbg !21004
  br i1 %cmp11.i.i.i, label %_ZN4PMGD12CallbackListIPvPNS_15TransactionImplEED2Ev.exit, label %while.body.i.i.i, !dbg !21005

while.body.i.i.i:                                 ; preds = %_ZN4PMGD12CallbackListIPvPNS_15TransactionImplEED2Ev.exit28, %invoke.cont6.i.i.i
  %.in1012.i.i.i = phi %"struct.std::__detail::_List_node_base"* [ %76, %invoke.cont6.i.i.i ], [ %75, %_ZN4PMGD12CallbackListIPvPNS_15TransactionImplEED2Ev.exit28 ]
  call void @llvm.dbg.value(metadata %"struct.std::__detail::_List_node_base"* %.in1012.i.i.i, metadata !15791, metadata !DIExpression()) #14, !dbg !21003
  call void @llvm.dbg.value(metadata %"struct.std::__detail::_List_node_base"* %.in1012.i.i.i, metadata !15792, metadata !DIExpression()) #14, !dbg !21006
  %_M_next4.i.i.i = getelementptr inbounds %"struct.std::__detail::_List_node_base", %"struct.std::__detail::_List_node_base"* %.in1012.i.i.i, i64 0, i32 0, !dbg !21007
  %76 = load %"struct.std::__detail::_List_node_base"*, %"struct.std::__detail::_List_node_base"** %_M_next4.i.i.i, align 8, !dbg !21007
  call void @llvm.dbg.value(metadata %"class.PMGD::CallbackList.138"* %_commit_callback_list, metadata !20880, metadata !DIExpression()) #14, !dbg !21008
  call void @llvm.dbg.value(metadata %"class.PMGD::CallbackList.138"* %_commit_callback_list, metadata !20891, metadata !DIExpression()) #14, !dbg !21010
  %_M_manager.i.i.i.i.i.i.i = getelementptr inbounds %"struct.std::__detail::_List_node_base", %"struct.std::__detail::_List_node_base"* %.in1012.i.i.i, i64 2, i32 1, !dbg !21012
  %77 = bitcast %"struct.std::__detail::_List_node_base"** %_M_manager.i.i.i.i.i.i.i to i1 (%"union.std::_Any_data"*, %"union.std::_Any_data"*, i32)**, !dbg !21012
  %78 = load i1 (%"union.std::_Any_data"*, %"union.std::_Any_data"*, i32)*, i1 (%"union.std::_Any_data"*, %"union.std::_Any_data"*, i32)** %77, align 8, !dbg !21012
  %tobool.i.i.i.i.i.i.i = icmp eq i1 (%"union.std::_Any_data"*, %"union.std::_Any_data"*, i32)* %78, null, !dbg !21012
  br i1 %tobool.i.i.i.i.i.i.i, label %invoke.cont6.i.i.i, label %if.then.i.i.i.i.i.i.i, !dbg !21015

if.then.i.i.i.i.i.i.i:                            ; preds = %while.body.i.i.i
  call void @llvm.dbg.value(metadata %"struct.std::__detail::_List_node_base"* %.in1012.i.i.i, metadata !15794, metadata !DIExpression(DW_OP_plus_uconst, 16, DW_OP_stack_value)) #14, !dbg !21016
  call void @llvm.dbg.value(metadata %"struct.std::__detail::_List_node_base"* %.in1012.i.i.i, metadata !20888, metadata !DIExpression(DW_OP_plus_uconst, 16, DW_OP_stack_value)) #14, !dbg !21017
  call void @llvm.dbg.value(metadata %"struct.std::__detail::_List_node_base"* %.in1012.i.i.i, metadata !20897, metadata !DIExpression(DW_OP_plus_uconst, 16, DW_OP_stack_value)) #14, !dbg !21018
  call void @llvm.dbg.value(metadata %"struct.std::__detail::_List_node_base"* %.in1012.i.i.i, metadata !20916, metadata !DIExpression(DW_OP_plus_uconst, 16, DW_OP_stack_value)) #14, !dbg !21019
  call void @llvm.dbg.value(metadata %"struct.std::__detail::_List_node_base"* %.in1012.i.i.i, metadata !20906, metadata !DIExpression(DW_OP_plus_uconst, 16, DW_OP_plus_uconst, 8, DW_OP_stack_value)) #14, !dbg !21020
  %_M_functor.i.i.i.i.i.i.i = getelementptr inbounds %"struct.std::__detail::_List_node_base", %"struct.std::__detail::_List_node_base"* %.in1012.i.i.i, i64 1, i32 1, !dbg !21021
  %79 = bitcast %"struct.std::__detail::_List_node_base"** %_M_functor.i.i.i.i.i.i.i to %"union.std::_Any_data"*, !dbg !21021
  %call.i.i.i.i.i.i.i = invoke zeroext i1 %78(%"union.std::_Any_data"* nonnull dereferenceable(16) %79, %"union.std::_Any_data"* nonnull dereferenceable(16) %79, i32 3)
          to label %invoke.cont6.i.i.i unwind label %terminate.lpad.i.i.i.i.i.i.i, !dbg !21022

terminate.lpad.i.i.i.i.i.i.i:                     ; preds = %if.then.i.i.i.i.i.i.i
  %80 = landingpad { i8*, i32 }
          catch i8* null, !dbg !21022
  %81 = extractvalue { i8*, i32 } %80, 0, !dbg !21022
  call void @__clang_call_terminate(i8* %81) #15, !dbg !21022
  unreachable, !dbg !21022

invoke.cont6.i.i.i:                               ; preds = %if.then.i.i.i.i.i.i.i, %while.body.i.i.i
  call void @llvm.dbg.value(metadata %"class.PMGD::CallbackList.138"* %_commit_callback_list, metadata !20926, metadata !DIExpression()) #14, !dbg !21023
  call void @llvm.dbg.value(metadata %"struct.std::__detail::_List_node_base"* %.in1012.i.i.i, metadata !20929, metadata !DIExpression()) #14, !dbg !21025
  call void @llvm.dbg.value(metadata %"class.PMGD::CallbackList.138"* %_commit_callback_list, metadata !20933, metadata !DIExpression()) #14, !dbg !21026
  call void @llvm.dbg.value(metadata %"struct.std::__detail::_List_node_base"* %.in1012.i.i.i, metadata !20936, metadata !DIExpression()) #14, !dbg !21028
  call void @llvm.dbg.value(metadata i64 1, metadata !20937, metadata !DIExpression()) #14, !dbg !21029
  call void @llvm.dbg.value(metadata %"class.PMGD::CallbackList.138"* %_commit_callback_list, metadata !20942, metadata !DIExpression()) #14, !dbg !21030
  call void @llvm.dbg.value(metadata %"struct.std::__detail::_List_node_base"* %.in1012.i.i.i, metadata !20945, metadata !DIExpression()) #14, !dbg !21032
  call void @llvm.dbg.value(metadata i64 1, metadata !20946, metadata !DIExpression()) #14, !dbg !21033
  %82 = bitcast %"struct.std::__detail::_List_node_base"* %.in1012.i.i.i to i8*, !dbg !21034
  call void @_ZdlPv(i8* %82) #14, !dbg !21035
  call void @llvm.dbg.value(metadata %"struct.std::__detail::_List_node_base"* %76, metadata !15791, metadata !DIExpression()) #14, !dbg !21003
  %cmp.i.i.i = icmp eq %"struct.std::__detail::_List_node_base"* %76, %1, !dbg !21004
  br i1 %cmp.i.i.i, label %_ZN4PMGD12CallbackListIPvPNS_15TransactionImplEED2Ev.exit, label %while.body.i.i.i, !dbg !21005, !llvm.loop !20953

_ZN4PMGD12CallbackListIPvPNS_15TransactionImplEED2Ev.exit: ; preds = %invoke.cont6.i.i.i, %_ZN4PMGD12CallbackListIPvPNS_15TransactionImplEED2Ev.exit28
  %lpad.val = insertvalue { i8*, i32 } undef, i8* %exn.slot.0, 0, !dbg !20828
  %lpad.val42 = insertvalue { i8*, i32 } %lpad.val, i32 %ehselector.slot.0, 1, !dbg !20828
  resume { i8*, i32 } %lpad.val42, !dbg !20828

unreachable:                                      ; preds = %if.then21
  unreachable
}

declare void @_ZN4PMGD18TransactionManager17alloc_transactionEbbRNS_8RangeSetE(%"struct.PMGD::TransactionHandle"* sret, %"class.PMGD::TransactionManager"*, i1 zeroext, i1 zeroext, %"class.PMGD::RangeSet"* dereferenceable(48)) local_unnamed_addr #5

; Function Attrs: inlinehint nounwind uwtable
define linkonce_odr void @_ZN4PMGD15TransactionImpl17IteratorCallbacksD2Ev(%"class.PMGD::TransactionImpl::IteratorCallbacks"* %this) unnamed_addr #2 comdat align 2 personality i32 (...)* @__gxx_personality_v0 !dbg !21036 {
entry:
  call void @llvm.dbg.value(metadata %"class.PMGD::TransactionImpl::IteratorCallbacks"* %this, metadata !21039, metadata !DIExpression()), !dbg !21040
  %_property_iterator_list = getelementptr inbounds %"class.PMGD::TransactionImpl::IteratorCallbacks", %"class.PMGD::TransactionImpl::IteratorCallbacks"* %this, i64 0, i32 2, !dbg !21041
  call void @llvm.dbg.value(metadata %"class.PMGD::CallbackList.120"* %_property_iterator_list, metadata !21043, metadata !DIExpression()) #14, !dbg !21047
  call void @llvm.dbg.value(metadata %"class.PMGD::CallbackList.120"* %_property_iterator_list, metadata !21049, metadata !DIExpression()) #14, !dbg !21052
  call void @llvm.dbg.value(metadata %"class.PMGD::CallbackList.120"* %_property_iterator_list, metadata !15768, metadata !DIExpression()) #14, !dbg !21055
  %0 = getelementptr inbounds %"class.PMGD::CallbackList.120", %"class.PMGD::CallbackList.120"* %_property_iterator_list, i64 0, i32 0, i32 0, i32 0, i32 0, i32 0, !dbg !21058
  %_M_next.i.i.i = getelementptr inbounds %"class.PMGD::CallbackList.120", %"class.PMGD::CallbackList.120"* %_property_iterator_list, i64 0, i32 0, i32 0, i32 0, i32 0, i32 0, i32 0, !dbg !21059
  %1 = load %"struct.std::__detail::_List_node_base"*, %"struct.std::__detail::_List_node_base"** %_M_next.i.i.i, align 8, !dbg !21059
  call void @llvm.dbg.value(metadata %"struct.std::__detail::_List_node_base"* %1, metadata !15770, metadata !DIExpression()) #14, !dbg !21060
  %cmp11.i.i.i = icmp eq %"struct.std::__detail::_List_node_base"* %1, %0, !dbg !21061
  br i1 %cmp11.i.i.i, label %_ZN4PMGD12CallbackListIPvRKNS_11PropertyRefEED2Ev.exit, label %while.body.i.i.i, !dbg !21062

while.body.i.i.i:                                 ; preds = %entry, %invoke.cont6.i.i.i
  %.in1012.i.i.i = phi %"struct.std::__detail::_List_node_base"* [ %2, %invoke.cont6.i.i.i ], [ %1, %entry ]
  call void @llvm.dbg.value(metadata %"struct.std::__detail::_List_node_base"* %.in1012.i.i.i, metadata !15770, metadata !DIExpression()) #14, !dbg !21060
  call void @llvm.dbg.value(metadata %"struct.std::__detail::_List_node_base"* %.in1012.i.i.i, metadata !15771, metadata !DIExpression()) #14, !dbg !21063
  %_M_next4.i.i.i = getelementptr inbounds %"struct.std::__detail::_List_node_base", %"struct.std::__detail::_List_node_base"* %.in1012.i.i.i, i64 0, i32 0, !dbg !21064
  %2 = load %"struct.std::__detail::_List_node_base"*, %"struct.std::__detail::_List_node_base"** %_M_next4.i.i.i, align 8, !dbg !21064
  call void @llvm.dbg.value(metadata %"class.PMGD::CallbackList.120"* %_property_iterator_list, metadata !21065, metadata !DIExpression()) #14, !dbg !21074
  call void @llvm.dbg.value(metadata %"class.PMGD::CallbackList.120"* %_property_iterator_list, metadata !21076, metadata !DIExpression()) #14, !dbg !21084
  %_M_manager.i.i.i.i.i.i.i = getelementptr inbounds %"struct.std::__detail::_List_node_base", %"struct.std::__detail::_List_node_base"* %.in1012.i.i.i, i64 2, i32 1, !dbg !21086
  %3 = bitcast %"struct.std::__detail::_List_node_base"** %_M_manager.i.i.i.i.i.i.i to i1 (%"union.std::_Any_data"*, %"union.std::_Any_data"*, i32)**, !dbg !21086
  %4 = load i1 (%"union.std::_Any_data"*, %"union.std::_Any_data"*, i32)*, i1 (%"union.std::_Any_data"*, %"union.std::_Any_data"*, i32)** %3, align 8, !dbg !21086
  %tobool.i.i.i.i.i.i.i = icmp eq i1 (%"union.std::_Any_data"*, %"union.std::_Any_data"*, i32)* %4, null, !dbg !21086
  br i1 %tobool.i.i.i.i.i.i.i, label %invoke.cont6.i.i.i, label %if.then.i.i.i.i.i.i.i, !dbg !21097

if.then.i.i.i.i.i.i.i:                            ; preds = %while.body.i.i.i
  call void @llvm.dbg.value(metadata %"struct.std::__detail::_List_node_base"* %.in1012.i.i.i, metadata !15773, metadata !DIExpression(DW_OP_plus_uconst, 16, DW_OP_stack_value)) #14, !dbg !21098
  call void @llvm.dbg.value(metadata %"struct.std::__detail::_List_node_base"* %.in1012.i.i.i, metadata !21073, metadata !DIExpression(DW_OP_plus_uconst, 16, DW_OP_stack_value)) #14, !dbg !21099
  call void @llvm.dbg.value(metadata %"struct.std::__detail::_List_node_base"* %.in1012.i.i.i, metadata !21082, metadata !DIExpression(DW_OP_plus_uconst, 16, DW_OP_stack_value)) #14, !dbg !21100
  call void @llvm.dbg.value(metadata %"struct.std::__detail::_List_node_base"* %.in1012.i.i.i, metadata !21095, metadata !DIExpression(DW_OP_plus_uconst, 16, DW_OP_stack_value)) #14, !dbg !21101
  call void @llvm.dbg.value(metadata %"struct.std::__detail::_List_node_base"* %.in1012.i.i.i, metadata !20906, metadata !DIExpression(DW_OP_plus_uconst, 16, DW_OP_plus_uconst, 8, DW_OP_stack_value)) #14, !dbg !21102
  %_M_functor.i.i.i.i.i.i.i = getelementptr inbounds %"struct.std::__detail::_List_node_base", %"struct.std::__detail::_List_node_base"* %.in1012.i.i.i, i64 1, i32 1, !dbg !21103
  %5 = bitcast %"struct.std::__detail::_List_node_base"** %_M_functor.i.i.i.i.i.i.i to %"union.std::_Any_data"*, !dbg !21103
  %call.i.i.i.i.i.i.i = invoke zeroext i1 %4(%"union.std::_Any_data"* nonnull dereferenceable(16) %5, %"union.std::_Any_data"* nonnull dereferenceable(16) %5, i32 3)
          to label %invoke.cont6.i.i.i unwind label %terminate.lpad.i.i.i.i.i.i.i, !dbg !21104

terminate.lpad.i.i.i.i.i.i.i:                     ; preds = %if.then.i.i.i.i.i.i.i
  %6 = landingpad { i8*, i32 }
          catch i8* null, !dbg !21104
  %7 = extractvalue { i8*, i32 } %6, 0, !dbg !21104
  tail call void @__clang_call_terminate(i8* %7) #15, !dbg !21104
  unreachable, !dbg !21104

invoke.cont6.i.i.i:                               ; preds = %if.then.i.i.i.i.i.i.i, %while.body.i.i.i
  call void @llvm.dbg.value(metadata %"class.PMGD::CallbackList.120"* %_property_iterator_list, metadata !21105, metadata !DIExpression()) #14, !dbg !21109
  call void @llvm.dbg.value(metadata %"struct.std::__detail::_List_node_base"* %.in1012.i.i.i, metadata !21108, metadata !DIExpression()) #14, !dbg !21111
  call void @llvm.dbg.value(metadata %"class.PMGD::CallbackList.120"* %_property_iterator_list, metadata !21112, metadata !DIExpression()) #14, !dbg !21117
  call void @llvm.dbg.value(metadata %"struct.std::__detail::_List_node_base"* %.in1012.i.i.i, metadata !21115, metadata !DIExpression()) #14, !dbg !21119
  call void @llvm.dbg.value(metadata i64 1, metadata !21116, metadata !DIExpression()) #14, !dbg !21120
  call void @llvm.dbg.value(metadata %"class.PMGD::CallbackList.120"* %_property_iterator_list, metadata !21121, metadata !DIExpression()) #14, !dbg !21126
  call void @llvm.dbg.value(metadata %"struct.std::__detail::_List_node_base"* %.in1012.i.i.i, metadata !21124, metadata !DIExpression()) #14, !dbg !21128
  call void @llvm.dbg.value(metadata i64 1, metadata !21125, metadata !DIExpression()) #14, !dbg !21129
  %8 = bitcast %"struct.std::__detail::_List_node_base"* %.in1012.i.i.i to i8*, !dbg !21130
  tail call void @_ZdlPv(i8* %8) #14, !dbg !21131
  call void @llvm.dbg.value(metadata %"struct.std::__detail::_List_node_base"* %2, metadata !15770, metadata !DIExpression()) #14, !dbg !21060
  %cmp.i.i.i = icmp eq %"struct.std::__detail::_List_node_base"* %2, %0, !dbg !21061
  br i1 %cmp.i.i.i, label %_ZN4PMGD12CallbackListIPvRKNS_11PropertyRefEED2Ev.exit, label %while.body.i.i.i, !dbg !21062, !llvm.loop !21132

_ZN4PMGD12CallbackListIPvRKNS_11PropertyRefEED2Ev.exit: ; preds = %invoke.cont6.i.i.i, %entry
  %_iterator_rebalance_list = getelementptr inbounds %"class.PMGD::TransactionImpl::IteratorCallbacks", %"class.PMGD::TransactionImpl::IteratorCallbacks"* %this, i64 0, i32 1, !dbg !21041
  call void @llvm.dbg.value(metadata %"class.PMGD::CallbackList.114"* %_iterator_rebalance_list, metadata !21135, metadata !DIExpression()) #14, !dbg !21139
  call void @llvm.dbg.value(metadata %"class.PMGD::CallbackList.114"* %_iterator_rebalance_list, metadata !21141, metadata !DIExpression()) #14, !dbg !21144
  call void @llvm.dbg.value(metadata %"class.PMGD::CallbackList.114"* %_iterator_rebalance_list, metadata !15778, metadata !DIExpression()) #14, !dbg !21147
  %9 = getelementptr inbounds %"class.PMGD::CallbackList.114", %"class.PMGD::CallbackList.114"* %_iterator_rebalance_list, i64 0, i32 0, i32 0, i32 0, i32 0, i32 0, !dbg !21150
  %_M_next.i.i.i1 = getelementptr inbounds %"class.PMGD::CallbackList.114", %"class.PMGD::CallbackList.114"* %_iterator_rebalance_list, i64 0, i32 0, i32 0, i32 0, i32 0, i32 0, i32 0, !dbg !21151
  %10 = load %"struct.std::__detail::_List_node_base"*, %"struct.std::__detail::_List_node_base"** %_M_next.i.i.i1, align 8, !dbg !21151
  call void @llvm.dbg.value(metadata %"struct.std::__detail::_List_node_base"* %10, metadata !15780, metadata !DIExpression()) #14, !dbg !21152
  %cmp11.i.i.i2 = icmp eq %"struct.std::__detail::_List_node_base"* %10, %9, !dbg !21153
  br i1 %cmp11.i.i.i2, label %_ZN4PMGD12CallbackListIPvS1_ED2Ev.exit, label %while.body.i.i.i7, !dbg !21154

while.body.i.i.i7:                                ; preds = %_ZN4PMGD12CallbackListIPvRKNS_11PropertyRefEED2Ev.exit, %invoke.cont6.i.i.i13
  %.in1012.i.i.i3 = phi %"struct.std::__detail::_List_node_base"* [ %11, %invoke.cont6.i.i.i13 ], [ %10, %_ZN4PMGD12CallbackListIPvRKNS_11PropertyRefEED2Ev.exit ]
  call void @llvm.dbg.value(metadata %"struct.std::__detail::_List_node_base"* %.in1012.i.i.i3, metadata !15780, metadata !DIExpression()) #14, !dbg !21152
  call void @llvm.dbg.value(metadata %"struct.std::__detail::_List_node_base"* %.in1012.i.i.i3, metadata !15781, metadata !DIExpression()) #14, !dbg !21155
  %_M_next4.i.i.i4 = getelementptr inbounds %"struct.std::__detail::_List_node_base", %"struct.std::__detail::_List_node_base"* %.in1012.i.i.i3, i64 0, i32 0, !dbg !21156
  %11 = load %"struct.std::__detail::_List_node_base"*, %"struct.std::__detail::_List_node_base"** %_M_next4.i.i.i4, align 8, !dbg !21156
  call void @llvm.dbg.value(metadata %"class.PMGD::CallbackList.114"* %_iterator_rebalance_list, metadata !21157, metadata !DIExpression()) #14, !dbg !21166
  call void @llvm.dbg.value(metadata %"class.PMGD::CallbackList.114"* %_iterator_rebalance_list, metadata !21168, metadata !DIExpression()) #14, !dbg !21176
  %_M_manager.i.i.i.i.i.i.i5 = getelementptr inbounds %"struct.std::__detail::_List_node_base", %"struct.std::__detail::_List_node_base"* %.in1012.i.i.i3, i64 2, i32 1, !dbg !21178
  %12 = bitcast %"struct.std::__detail::_List_node_base"** %_M_manager.i.i.i.i.i.i.i5 to i1 (%"union.std::_Any_data"*, %"union.std::_Any_data"*, i32)**, !dbg !21178
  %13 = load i1 (%"union.std::_Any_data"*, %"union.std::_Any_data"*, i32)*, i1 (%"union.std::_Any_data"*, %"union.std::_Any_data"*, i32)** %12, align 8, !dbg !21178
  %tobool.i.i.i.i.i.i.i6 = icmp eq i1 (%"union.std::_Any_data"*, %"union.std::_Any_data"*, i32)* %13, null, !dbg !21178
  br i1 %tobool.i.i.i.i.i.i.i6, label %invoke.cont6.i.i.i13, label %if.then.i.i.i.i.i.i.i10, !dbg !21189

if.then.i.i.i.i.i.i.i10:                          ; preds = %while.body.i.i.i7
  call void @llvm.dbg.value(metadata %"struct.std::__detail::_List_node_base"* %.in1012.i.i.i3, metadata !15783, metadata !DIExpression(DW_OP_plus_uconst, 16, DW_OP_stack_value)) #14, !dbg !21190
  call void @llvm.dbg.value(metadata %"struct.std::__detail::_List_node_base"* %.in1012.i.i.i3, metadata !21165, metadata !DIExpression(DW_OP_plus_uconst, 16, DW_OP_stack_value)) #14, !dbg !21191
  call void @llvm.dbg.value(metadata %"struct.std::__detail::_List_node_base"* %.in1012.i.i.i3, metadata !21174, metadata !DIExpression(DW_OP_plus_uconst, 16, DW_OP_stack_value)) #14, !dbg !21192
  call void @llvm.dbg.value(metadata %"struct.std::__detail::_List_node_base"* %.in1012.i.i.i3, metadata !21187, metadata !DIExpression(DW_OP_plus_uconst, 16, DW_OP_stack_value)) #14, !dbg !21193
  call void @llvm.dbg.value(metadata %"struct.std::__detail::_List_node_base"* %.in1012.i.i.i3, metadata !20906, metadata !DIExpression(DW_OP_plus_uconst, 16, DW_OP_plus_uconst, 8, DW_OP_stack_value)) #14, !dbg !21194
  %_M_functor.i.i.i.i.i.i.i8 = getelementptr inbounds %"struct.std::__detail::_List_node_base", %"struct.std::__detail::_List_node_base"* %.in1012.i.i.i3, i64 1, i32 1, !dbg !21195
  %14 = bitcast %"struct.std::__detail::_List_node_base"** %_M_functor.i.i.i.i.i.i.i8 to %"union.std::_Any_data"*, !dbg !21195
  %call.i.i.i.i.i.i.i9 = invoke zeroext i1 %13(%"union.std::_Any_data"* nonnull dereferenceable(16) %14, %"union.std::_Any_data"* nonnull dereferenceable(16) %14, i32 3)
          to label %invoke.cont6.i.i.i13 unwind label %terminate.lpad.i.i.i.i.i.i.i11, !dbg !21196

terminate.lpad.i.i.i.i.i.i.i11:                   ; preds = %if.then.i.i.i.i.i.i.i10
  %15 = landingpad { i8*, i32 }
          catch i8* null, !dbg !21196
  %16 = extractvalue { i8*, i32 } %15, 0, !dbg !21196
  tail call void @__clang_call_terminate(i8* %16) #15, !dbg !21196
  unreachable, !dbg !21196

invoke.cont6.i.i.i13:                             ; preds = %if.then.i.i.i.i.i.i.i10, %while.body.i.i.i7
  call void @llvm.dbg.value(metadata %"class.PMGD::CallbackList.114"* %_iterator_rebalance_list, metadata !21197, metadata !DIExpression()) #14, !dbg !21201
  call void @llvm.dbg.value(metadata %"struct.std::__detail::_List_node_base"* %.in1012.i.i.i3, metadata !21200, metadata !DIExpression()) #14, !dbg !21203
  call void @llvm.dbg.value(metadata %"class.PMGD::CallbackList.114"* %_iterator_rebalance_list, metadata !21204, metadata !DIExpression()) #14, !dbg !21209
  call void @llvm.dbg.value(metadata %"struct.std::__detail::_List_node_base"* %.in1012.i.i.i3, metadata !21207, metadata !DIExpression()) #14, !dbg !21211
  call void @llvm.dbg.value(metadata i64 1, metadata !21208, metadata !DIExpression()) #14, !dbg !21212
  call void @llvm.dbg.value(metadata %"class.PMGD::CallbackList.114"* %_iterator_rebalance_list, metadata !21213, metadata !DIExpression()) #14, !dbg !21218
  call void @llvm.dbg.value(metadata %"struct.std::__detail::_List_node_base"* %.in1012.i.i.i3, metadata !21216, metadata !DIExpression()) #14, !dbg !21220
  call void @llvm.dbg.value(metadata i64 1, metadata !21217, metadata !DIExpression()) #14, !dbg !21221
